
kernel:     file format elf32-i386


Disassembly of section .text:

00100000 <brelse>:
}

// Release the buffer b.
void
brelse(struct buf *b)
{
  100000:	55                   	push   %ebp
  100001:	89 e5                	mov    %esp,%ebp
  100003:	53                   	push   %ebx
  100004:	83 ec 14             	sub    $0x14,%esp
  100007:	8b 5d 08             	mov    0x8(%ebp),%ebx
  if((b->flags & B_BUSY) == 0)
  10000a:	f6 03 01             	testb  $0x1,(%ebx)
  10000d:	74 57                	je     100066 <brelse+0x66>
    panic("brelse");

  acquire(&bcache.lock);
  10000f:	c7 04 24 60 78 10 00 	movl   $0x107860,(%esp)
  100016:	e8 05 3b 00 00       	call   103b20 <acquire>

  b->next->prev = b->prev;
  10001b:	8b 43 10             	mov    0x10(%ebx),%eax
  10001e:	8b 53 0c             	mov    0xc(%ebx),%edx
  100021:	89 50 0c             	mov    %edx,0xc(%eax)
  b->prev->next = b->next;
  100024:	8b 43 0c             	mov    0xc(%ebx),%eax
  100027:	8b 53 10             	mov    0x10(%ebx),%edx
  10002a:	89 50 10             	mov    %edx,0x10(%eax)
  b->next = bcache.head.next;
  10002d:	a1 94 8d 10 00       	mov    0x108d94,%eax
  b->prev = &bcache.head;
  100032:	c7 43 0c 84 8d 10 00 	movl   $0x108d84,0xc(%ebx)

  acquire(&bcache.lock);

  b->next->prev = b->prev;
  b->prev->next = b->next;
  b->next = bcache.head.next;
  100039:	89 43 10             	mov    %eax,0x10(%ebx)
  b->prev = &bcache.head;
  bcache.head.next->prev = b;
  10003c:	a1 94 8d 10 00       	mov    0x108d94,%eax
  100041:	89 58 0c             	mov    %ebx,0xc(%eax)
  bcache.head.next = b;
  100044:	89 1d 94 8d 10 00    	mov    %ebx,0x108d94

  b->flags &= ~B_BUSY;
  10004a:	83 23 fe             	andl   $0xfffffffe,(%ebx)
  wakeup(b);
  10004d:	89 1c 24             	mov    %ebx,(%esp)
  100050:	e8 fb 2f 00 00       	call   103050 <wakeup>

  release(&bcache.lock);
  100055:	c7 45 08 60 78 10 00 	movl   $0x107860,0x8(%ebp)
}
  10005c:	83 c4 14             	add    $0x14,%esp
  10005f:	5b                   	pop    %ebx
  100060:	5d                   	pop    %ebp
  bcache.head.next = b;

  b->flags &= ~B_BUSY;
  wakeup(b);

  release(&bcache.lock);
  100061:	e9 6a 3a 00 00       	jmp    103ad0 <release>
// Release the buffer b.
void
brelse(struct buf *b)
{
  if((b->flags & B_BUSY) == 0)
    panic("brelse");
  100066:	c7 04 24 a0 64 10 00 	movl   $0x1064a0,(%esp)
  10006d:	e8 3e 08 00 00       	call   1008b0 <panic>
  100072:	8d b4 26 00 00 00 00 	lea    0x0(%esi,%eiz,1),%esi
  100079:	8d bc 27 00 00 00 00 	lea    0x0(%edi,%eiz,1),%edi

00100080 <bwrite>:
}

// Write b's contents to disk.  Must be locked.
void
bwrite(struct buf *b)
{
  100080:	55                   	push   %ebp
  100081:	89 e5                	mov    %esp,%ebp
  100083:	83 ec 18             	sub    $0x18,%esp
  100086:	8b 45 08             	mov    0x8(%ebp),%eax
  if((b->flags & B_BUSY) == 0)
  100089:	8b 10                	mov    (%eax),%edx
  10008b:	f6 c2 01             	test   $0x1,%dl
  10008e:	74 0e                	je     10009e <bwrite+0x1e>
    panic("bwrite");
  b->flags |= B_DIRTY;
  100090:	83 ca 04             	or     $0x4,%edx
  100093:	89 10                	mov    %edx,(%eax)
  iderw(b);
  100095:	89 45 08             	mov    %eax,0x8(%ebp)
}
  100098:	c9                   	leave  
bwrite(struct buf *b)
{
  if((b->flags & B_BUSY) == 0)
    panic("bwrite");
  b->flags |= B_DIRTY;
  iderw(b);
  100099:	e9 82 1e 00 00       	jmp    101f20 <iderw>
// Write b's contents to disk.  Must be locked.
void
bwrite(struct buf *b)
{
  if((b->flags & B_BUSY) == 0)
    panic("bwrite");
  10009e:	c7 04 24 a7 64 10 00 	movl   $0x1064a7,(%esp)
  1000a5:	e8 06 08 00 00       	call   1008b0 <panic>
  1000aa:	8d b6 00 00 00 00    	lea    0x0(%esi),%esi

001000b0 <bread>:
}

// Return a B_BUSY buf with the contents of the indicated disk sector.
struct buf*
bread(uint dev, uint sector)
{
  1000b0:	55                   	push   %ebp
  1000b1:	89 e5                	mov    %esp,%ebp
  1000b3:	57                   	push   %edi
  1000b4:	56                   	push   %esi
  1000b5:	53                   	push   %ebx
  1000b6:	83 ec 1c             	sub    $0x1c,%esp
  1000b9:	8b 75 08             	mov    0x8(%ebp),%esi
  1000bc:	8b 7d 0c             	mov    0xc(%ebp),%edi
static struct buf*
bget(uint dev, uint sector)
{
  struct buf *b;

  acquire(&bcache.lock);
  1000bf:	c7 04 24 60 78 10 00 	movl   $0x107860,(%esp)
  1000c6:	e8 55 3a 00 00       	call   103b20 <acquire>

 loop:
  // Try for cached block.
  for(b = bcache.head.next; b != &bcache.head; b = b->next){
  1000cb:	8b 1d 94 8d 10 00    	mov    0x108d94,%ebx
  1000d1:	81 fb 84 8d 10 00    	cmp    $0x108d84,%ebx
  1000d7:	75 12                	jne    1000eb <bread+0x3b>
  1000d9:	eb 35                	jmp    100110 <bread+0x60>
  1000db:	90                   	nop
  1000dc:	8d 74 26 00          	lea    0x0(%esi,%eiz,1),%esi
  1000e0:	8b 5b 10             	mov    0x10(%ebx),%ebx
  1000e3:	81 fb 84 8d 10 00    	cmp    $0x108d84,%ebx
  1000e9:	74 25                	je     100110 <bread+0x60>
    if(b->dev == dev && b->sector == sector){
  1000eb:	3b 73 04             	cmp    0x4(%ebx),%esi
  1000ee:	66 90                	xchg   %ax,%ax
  1000f0:	75 ee                	jne    1000e0 <bread+0x30>
  1000f2:	3b 7b 08             	cmp    0x8(%ebx),%edi
  1000f5:	75 e9                	jne    1000e0 <bread+0x30>
      if(!(b->flags & B_BUSY)){
  1000f7:	8b 03                	mov    (%ebx),%eax
  1000f9:	a8 01                	test   $0x1,%al
  1000fb:	74 64                	je     100161 <bread+0xb1>
        b->flags |= B_BUSY;
        release(&bcache.lock);
        return b;
      }
      sleep(b, &bcache.lock);
  1000fd:	c7 44 24 04 60 78 10 	movl   $0x107860,0x4(%esp)
  100104:	00 
  100105:	89 1c 24             	mov    %ebx,(%esp)
  100108:	e8 63 30 00 00       	call   103170 <sleep>
  10010d:	eb bc                	jmp    1000cb <bread+0x1b>
  10010f:	90                   	nop
      goto loop;
    }
  }

  // Allocate fresh block.
  for(b = bcache.head.prev; b != &bcache.head; b = b->prev){
  100110:	8b 1d 90 8d 10 00    	mov    0x108d90,%ebx
  100116:	81 fb 84 8d 10 00    	cmp    $0x108d84,%ebx
  10011c:	75 0d                	jne    10012b <bread+0x7b>
  10011e:	eb 54                	jmp    100174 <bread+0xc4>
  100120:	8b 5b 0c             	mov    0xc(%ebx),%ebx
  100123:	81 fb 84 8d 10 00    	cmp    $0x108d84,%ebx
  100129:	74 49                	je     100174 <bread+0xc4>
    if((b->flags & B_BUSY) == 0){
  10012b:	f6 03 01             	testb  $0x1,(%ebx)
  10012e:	66 90                	xchg   %ax,%ax
  100130:	75 ee                	jne    100120 <bread+0x70>
      b->dev = dev;
  100132:	89 73 04             	mov    %esi,0x4(%ebx)
      b->sector = sector;
  100135:	89 7b 08             	mov    %edi,0x8(%ebx)
      b->flags = B_BUSY;
  100138:	c7 03 01 00 00 00    	movl   $0x1,(%ebx)
      release(&bcache.lock);
  10013e:	c7 04 24 60 78 10 00 	movl   $0x107860,(%esp)
  100145:	e8 86 39 00 00       	call   103ad0 <release>
bread(uint dev, uint sector)
{
  struct buf *b;

  b = bget(dev, sector);
  if(!(b->flags & B_VALID))
  10014a:	f6 03 02             	testb  $0x2,(%ebx)
  10014d:	75 08                	jne    100157 <bread+0xa7>
    iderw(b);
  10014f:	89 1c 24             	mov    %ebx,(%esp)
  100152:	e8 c9 1d 00 00       	call   101f20 <iderw>
  return b;
}
  100157:	83 c4 1c             	add    $0x1c,%esp
  10015a:	89 d8                	mov    %ebx,%eax
  10015c:	5b                   	pop    %ebx
  10015d:	5e                   	pop    %esi
  10015e:	5f                   	pop    %edi
  10015f:	5d                   	pop    %ebp
  100160:	c3                   	ret    
 loop:
  // Try for cached block.
  for(b = bcache.head.next; b != &bcache.head; b = b->next){
    if(b->dev == dev && b->sector == sector){
      if(!(b->flags & B_BUSY)){
        b->flags |= B_BUSY;
  100161:	83 c8 01             	or     $0x1,%eax
  100164:	89 03                	mov    %eax,(%ebx)
        release(&bcache.lock);
  100166:	c7 04 24 60 78 10 00 	movl   $0x107860,(%esp)
  10016d:	e8 5e 39 00 00       	call   103ad0 <release>
  100172:	eb d6                	jmp    10014a <bread+0x9a>
      b->flags = B_BUSY;
      release(&bcache.lock);
      return b;
    }
  }
  panic("bget: no buffers");
  100174:	c7 04 24 ae 64 10 00 	movl   $0x1064ae,(%esp)
  10017b:	e8 30 07 00 00       	call   1008b0 <panic>

00100180 <binit>:
  struct buf head;
} bcache;

void
binit(void)
{
  100180:	55                   	push   %ebp
  100181:	89 e5                	mov    %esp,%ebp
  100183:	83 ec 18             	sub    $0x18,%esp
  struct buf *b;

  initlock(&bcache.lock, "bcache");
  100186:	c7 44 24 04 bf 64 10 	movl   $0x1064bf,0x4(%esp)
  10018d:	00 
  10018e:	c7 04 24 60 78 10 00 	movl   $0x107860,(%esp)
  100195:	e8 f6 37 00 00       	call   103990 <initlock>
  // head.next is most recently used.
  struct buf head;
} bcache;

void
binit(void)
  10019a:	ba 84 8d 10 00       	mov    $0x108d84,%edx
  10019f:	b8 94 78 10 00       	mov    $0x107894,%eax
  struct buf *b;

  initlock(&bcache.lock, "bcache");

  // Create linked list of buffers
  bcache.head.prev = &bcache.head;
  1001a4:	c7 05 90 8d 10 00 84 	movl   $0x108d84,0x108d90
  1001ab:	8d 10 00 
  bcache.head.next = &bcache.head;
  1001ae:	c7 05 94 8d 10 00 84 	movl   $0x108d84,0x108d94
  1001b5:	8d 10 00 
  for(b = bcache.buf; b < bcache.buf+NBUF; b++){
    b->next = bcache.head.next;
  1001b8:	89 50 10             	mov    %edx,0x10(%eax)
    b->prev = &bcache.head;
  1001bb:	c7 40 0c 84 8d 10 00 	movl   $0x108d84,0xc(%eax)
    b->dev = -1;
  1001c2:	c7 40 04 ff ff ff ff 	movl   $0xffffffff,0x4(%eax)
    bcache.head.next->prev = b;
  1001c9:	8b 15 94 8d 10 00    	mov    0x108d94,%edx
  1001cf:	89 42 0c             	mov    %eax,0xc(%edx)
  initlock(&bcache.lock, "bcache");

  // Create linked list of buffers
  bcache.head.prev = &bcache.head;
  bcache.head.next = &bcache.head;
  for(b = bcache.buf; b < bcache.buf+NBUF; b++){
  1001d2:	89 c2                	mov    %eax,%edx
    b->next = bcache.head.next;
    b->prev = &bcache.head;
    b->dev = -1;
    bcache.head.next->prev = b;
    bcache.head.next = b;
  1001d4:	a3 94 8d 10 00       	mov    %eax,0x108d94
  initlock(&bcache.lock, "bcache");

  // Create linked list of buffers
  bcache.head.prev = &bcache.head;
  bcache.head.next = &bcache.head;
  for(b = bcache.buf; b < bcache.buf+NBUF; b++){
  1001d9:	05 18 02 00 00       	add    $0x218,%eax
  1001de:	3d 84 8d 10 00       	cmp    $0x108d84,%eax
  1001e3:	75 d3                	jne    1001b8 <binit+0x38>
    b->prev = &bcache.head;
    b->dev = -1;
    bcache.head.next->prev = b;
    bcache.head.next = b;
  }
}
  1001e5:	c9                   	leave  
  1001e6:	c3                   	ret    
  1001e7:	90                   	nop
  1001e8:	90                   	nop
  1001e9:	90                   	nop
  1001ea:	90                   	nop
  1001eb:	90                   	nop
  1001ec:	90                   	nop
  1001ed:	90                   	nop
  1001ee:	90                   	nop
  1001ef:	90                   	nop

001001f0 <consoleinit>:
  return n;
}

void
consoleinit(void)
{
  1001f0:	55                   	push   %ebp
  1001f1:	89 e5                	mov    %esp,%ebp
  1001f3:	83 ec 18             	sub    $0x18,%esp
  initlock(&cons.lock, "console");
  1001f6:	c7 44 24 04 c6 64 10 	movl   $0x1064c6,0x4(%esp)
  1001fd:	00 
  1001fe:	c7 04 24 c0 77 10 00 	movl   $0x1077c0,(%esp)
  100205:	e8 86 37 00 00       	call   103990 <initlock>
  initlock(&input.lock, "input");
  10020a:	c7 44 24 04 ce 64 10 	movl   $0x1064ce,0x4(%esp)
  100211:	00 
  100212:	c7 04 24 a0 8f 10 00 	movl   $0x108fa0,(%esp)
  100219:	e8 72 37 00 00       	call   103990 <initlock>

  devsw[CONSOLE].write = consolewrite;
  devsw[CONSOLE].read = consoleread;
  cons.locking = 1;

  picenable(IRQ_KBD);
  10021e:	c7 04 24 01 00 00 00 	movl   $0x1,(%esp)
consoleinit(void)
{
  initlock(&cons.lock, "console");
  initlock(&input.lock, "input");

  devsw[CONSOLE].write = consolewrite;
  100225:	c7 05 0c 9a 10 00 d0 	movl   $0x1003d0,0x109a0c
  10022c:	03 10 00 
  devsw[CONSOLE].read = consoleread;
  10022f:	c7 05 08 9a 10 00 20 	movl   $0x100620,0x109a08
  100236:	06 10 00 
  cons.locking = 1;
  100239:	c7 05 f4 77 10 00 01 	movl   $0x1,0x1077f4
  100240:	00 00 00 

  picenable(IRQ_KBD);
  100243:	e8 38 29 00 00       	call   102b80 <picenable>
  ioapicenable(IRQ_KBD, 0);
  100248:	c7 44 24 04 00 00 00 	movl   $0x0,0x4(%esp)
  10024f:	00 
  100250:	c7 04 24 01 00 00 00 	movl   $0x1,(%esp)
  100257:	e8 e4 1e 00 00       	call   102140 <ioapicenable>
}
  10025c:	c9                   	leave  
  10025d:	c3                   	ret    
  10025e:	66 90                	xchg   %ax,%ax

00100260 <consputc>:
  crt[pos] = ' ' | 0x0700;
}

void
consputc(int c)
{
  100260:	55                   	push   %ebp
  100261:	89 e5                	mov    %esp,%ebp
  100263:	57                   	push   %edi
  100264:	56                   	push   %esi
  100265:	89 c6                	mov    %eax,%esi
  100267:	53                   	push   %ebx
  100268:	83 ec 1c             	sub    $0x1c,%esp
  if(panicked){
  10026b:	83 3d a0 77 10 00 00 	cmpl   $0x0,0x1077a0
  100272:	74 03                	je     100277 <consputc+0x17>
}

static inline void
cli(void)
{
  asm volatile("cli");
  100274:	fa                   	cli    
  100275:	eb fe                	jmp    100275 <consputc+0x15>
    cli();
    for(;;)
      ;
  }

  if(c == BACKSPACE){
  100277:	3d 00 01 00 00       	cmp    $0x100,%eax
  10027c:	0f 84 a0 00 00 00    	je     100322 <consputc+0xc2>
    uartputc('\b'); uartputc(' '); uartputc('\b');
  } else
    uartputc(c);
  100282:	89 04 24             	mov    %eax,(%esp)
  100285:	e8 56 4e 00 00       	call   1050e0 <uartputc>
}

static inline void
outb(ushort port, uchar data)
{
  asm volatile("out %0,%1" : : "a" (data), "d" (port));
  10028a:	b9 d4 03 00 00       	mov    $0x3d4,%ecx
  10028f:	b8 0e 00 00 00       	mov    $0xe,%eax
  100294:	89 ca                	mov    %ecx,%edx
  100296:	ee                   	out    %al,(%dx)
static inline uchar
inb(ushort port)
{
  uchar data;

  asm volatile("in %1,%0" : "=a" (data) : "d" (port));
  100297:	bf d5 03 00 00       	mov    $0x3d5,%edi
  10029c:	89 fa                	mov    %edi,%edx
  10029e:	ec                   	in     (%dx),%al
{
  int pos;
  
  // Cursor position: col + 80*row.
  outb(CRTPORT, 14);
  pos = inb(CRTPORT+1) << 8;
  10029f:	0f b6 d8             	movzbl %al,%ebx
}

static inline void
outb(ushort port, uchar data)
{
  asm volatile("out %0,%1" : : "a" (data), "d" (port));
  1002a2:	89 ca                	mov    %ecx,%edx
  1002a4:	c1 e3 08             	shl    $0x8,%ebx
  1002a7:	b8 0f 00 00 00       	mov    $0xf,%eax
  1002ac:	ee                   	out    %al,(%dx)
static inline uchar
inb(ushort port)
{
  uchar data;

  asm volatile("in %1,%0" : "=a" (data) : "d" (port));
  1002ad:	89 fa                	mov    %edi,%edx
  1002af:	ec                   	in     (%dx),%al
  outb(CRTPORT, 15);
  pos |= inb(CRTPORT+1);
  1002b0:	0f b6 c0             	movzbl %al,%eax
  1002b3:	09 c3                	or     %eax,%ebx

  if(c == '\n')
  1002b5:	83 fe 0a             	cmp    $0xa,%esi
  1002b8:	0f 84 ee 00 00 00    	je     1003ac <consputc+0x14c>
    pos += 80 - pos%80;
  else if(c == BACKSPACE){
  1002be:	81 fe 00 01 00 00    	cmp    $0x100,%esi
  1002c4:	0f 84 cb 00 00 00    	je     100395 <consputc+0x135>
    if(pos > 0) --pos;
  } else
    crt[pos++] = (c&0xff) | 0x0700;  // black on white
  1002ca:	66 81 e6 ff 00       	and    $0xff,%si
  1002cf:	66 81 ce 00 07       	or     $0x700,%si
  1002d4:	66 89 b4 1b 00 80 0b 	mov    %si,0xb8000(%ebx,%ebx,1)
  1002db:	00 
  1002dc:	83 c3 01             	add    $0x1,%ebx
  
  if((pos/80) >= 24){  // Scroll up.
  1002df:	81 fb 7f 07 00 00    	cmp    $0x77f,%ebx
  1002e5:	8d 8c 1b 00 80 0b 00 	lea    0xb8000(%ebx,%ebx,1),%ecx
  1002ec:	7f 5d                	jg     10034b <consputc+0xeb>
}

static inline void
outb(ushort port, uchar data)
{
  asm volatile("out %0,%1" : : "a" (data), "d" (port));
  1002ee:	be d4 03 00 00       	mov    $0x3d4,%esi
  1002f3:	b8 0e 00 00 00       	mov    $0xe,%eax
  1002f8:	89 f2                	mov    %esi,%edx
  1002fa:	ee                   	out    %al,(%dx)
  1002fb:	bf d5 03 00 00       	mov    $0x3d5,%edi
  100300:	89 d8                	mov    %ebx,%eax
  100302:	c1 f8 08             	sar    $0x8,%eax
  100305:	89 fa                	mov    %edi,%edx
  100307:	ee                   	out    %al,(%dx)
  100308:	b8 0f 00 00 00       	mov    $0xf,%eax
  10030d:	89 f2                	mov    %esi,%edx
  10030f:	ee                   	out    %al,(%dx)
  100310:	89 d8                	mov    %ebx,%eax
  100312:	89 fa                	mov    %edi,%edx
  100314:	ee                   	out    %al,(%dx)
  
  outb(CRTPORT, 14);
  outb(CRTPORT+1, pos>>8);
  outb(CRTPORT, 15);
  outb(CRTPORT+1, pos);
  crt[pos] = ' ' | 0x0700;
  100315:	66 c7 01 20 07       	movw   $0x720,(%ecx)
  if(c == BACKSPACE){
    uartputc('\b'); uartputc(' '); uartputc('\b');
  } else
    uartputc(c);
  cgaputc(c);
}
  10031a:	83 c4 1c             	add    $0x1c,%esp
  10031d:	5b                   	pop    %ebx
  10031e:	5e                   	pop    %esi
  10031f:	5f                   	pop    %edi
  100320:	5d                   	pop    %ebp
  100321:	c3                   	ret    
    for(;;)
      ;
  }

  if(c == BACKSPACE){
    uartputc('\b'); uartputc(' '); uartputc('\b');
  100322:	c7 04 24 08 00 00 00 	movl   $0x8,(%esp)
  100329:	e8 b2 4d 00 00       	call   1050e0 <uartputc>
  10032e:	c7 04 24 20 00 00 00 	movl   $0x20,(%esp)
  100335:	e8 a6 4d 00 00       	call   1050e0 <uartputc>
  10033a:	c7 04 24 08 00 00 00 	movl   $0x8,(%esp)
  100341:	e8 9a 4d 00 00       	call   1050e0 <uartputc>
  100346:	e9 3f ff ff ff       	jmp    10028a <consputc+0x2a>
  } else
    crt[pos++] = (c&0xff) | 0x0700;  // black on white
  
  if((pos/80) >= 24){  // Scroll up.
    memmove(crt, crt+80, sizeof(crt[0])*23*80);
    pos -= 80;
  10034b:	83 eb 50             	sub    $0x50,%ebx
    if(pos > 0) --pos;
  } else
    crt[pos++] = (c&0xff) | 0x0700;  // black on white
  
  if((pos/80) >= 24){  // Scroll up.
    memmove(crt, crt+80, sizeof(crt[0])*23*80);
  10034e:	c7 44 24 08 60 0e 00 	movl   $0xe60,0x8(%esp)
  100355:	00 
    pos -= 80;
    memset(crt+pos, 0, sizeof(crt[0])*(24*80 - pos));
  100356:	8d b4 1b 00 80 0b 00 	lea    0xb8000(%ebx,%ebx,1),%esi
    if(pos > 0) --pos;
  } else
    crt[pos++] = (c&0xff) | 0x0700;  // black on white
  
  if((pos/80) >= 24){  // Scroll up.
    memmove(crt, crt+80, sizeof(crt[0])*23*80);
  10035d:	c7 44 24 04 a0 80 0b 	movl   $0xb80a0,0x4(%esp)
  100364:	00 
  100365:	c7 04 24 00 80 0b 00 	movl   $0xb8000,(%esp)
  10036c:	e8 cf 38 00 00       	call   103c40 <memmove>
    pos -= 80;
    memset(crt+pos, 0, sizeof(crt[0])*(24*80 - pos));
  100371:	b8 80 07 00 00       	mov    $0x780,%eax
  100376:	29 d8                	sub    %ebx,%eax
  100378:	01 c0                	add    %eax,%eax
  10037a:	89 44 24 08          	mov    %eax,0x8(%esp)
  10037e:	c7 44 24 04 00 00 00 	movl   $0x0,0x4(%esp)
  100385:	00 
  100386:	89 34 24             	mov    %esi,(%esp)
  100389:	e8 32 38 00 00       	call   103bc0 <memset>
  outb(CRTPORT+1, pos);
  crt[pos] = ' ' | 0x0700;
}

void
consputc(int c)
  10038e:	89 f1                	mov    %esi,%ecx
  100390:	e9 59 ff ff ff       	jmp    1002ee <consputc+0x8e>
  pos |= inb(CRTPORT+1);

  if(c == '\n')
    pos += 80 - pos%80;
  else if(c == BACKSPACE){
    if(pos > 0) --pos;
  100395:	85 db                	test   %ebx,%ebx
  100397:	8d 8c 1b 00 80 0b 00 	lea    0xb8000(%ebx,%ebx,1),%ecx
  10039e:	0f 8e 4a ff ff ff    	jle    1002ee <consputc+0x8e>
  1003a4:	83 eb 01             	sub    $0x1,%ebx
  1003a7:	e9 33 ff ff ff       	jmp    1002df <consputc+0x7f>
  pos = inb(CRTPORT+1) << 8;
  outb(CRTPORT, 15);
  pos |= inb(CRTPORT+1);

  if(c == '\n')
    pos += 80 - pos%80;
  1003ac:	89 da                	mov    %ebx,%edx
  1003ae:	89 d8                	mov    %ebx,%eax
  1003b0:	b9 50 00 00 00       	mov    $0x50,%ecx
  1003b5:	83 c3 50             	add    $0x50,%ebx
  1003b8:	c1 fa 1f             	sar    $0x1f,%edx
  1003bb:	f7 f9                	idiv   %ecx
  1003bd:	29 d3                	sub    %edx,%ebx
  1003bf:	e9 1b ff ff ff       	jmp    1002df <consputc+0x7f>
  1003c4:	8d b6 00 00 00 00    	lea    0x0(%esi),%esi
  1003ca:	8d bf 00 00 00 00    	lea    0x0(%edi),%edi

001003d0 <consolewrite>:
  return target - n;
}

int
consolewrite(struct inode *ip, char *buf, int n)
{
  1003d0:	55                   	push   %ebp
  1003d1:	89 e5                	mov    %esp,%ebp
  1003d3:	57                   	push   %edi
  1003d4:	56                   	push   %esi
  1003d5:	53                   	push   %ebx
  1003d6:	83 ec 1c             	sub    $0x1c,%esp
  int i;

  iunlock(ip);
  1003d9:	8b 45 08             	mov    0x8(%ebp),%eax
  return target - n;
}

int
consolewrite(struct inode *ip, char *buf, int n)
{
  1003dc:	8b 75 10             	mov    0x10(%ebp),%esi
  1003df:	8b 7d 0c             	mov    0xc(%ebp),%edi
  int i;

  iunlock(ip);
  1003e2:	89 04 24             	mov    %eax,(%esp)
  1003e5:	e8 66 13 00 00       	call   101750 <iunlock>
  acquire(&cons.lock);
  1003ea:	c7 04 24 c0 77 10 00 	movl   $0x1077c0,(%esp)
  1003f1:	e8 2a 37 00 00       	call   103b20 <acquire>
  for(i = 0; i < n; i++)
  1003f6:	85 f6                	test   %esi,%esi
  1003f8:	7e 16                	jle    100410 <consolewrite+0x40>
  1003fa:	31 db                	xor    %ebx,%ebx
  1003fc:	8d 74 26 00          	lea    0x0(%esi,%eiz,1),%esi
    consputc(buf[i] & 0xff);
  100400:	0f b6 04 1f          	movzbl (%edi,%ebx,1),%eax
{
  int i;

  iunlock(ip);
  acquire(&cons.lock);
  for(i = 0; i < n; i++)
  100404:	83 c3 01             	add    $0x1,%ebx
    consputc(buf[i] & 0xff);
  100407:	e8 54 fe ff ff       	call   100260 <consputc>
{
  int i;

  iunlock(ip);
  acquire(&cons.lock);
  for(i = 0; i < n; i++)
  10040c:	39 de                	cmp    %ebx,%esi
  10040e:	7f f0                	jg     100400 <consolewrite+0x30>
    consputc(buf[i] & 0xff);
  release(&cons.lock);
  100410:	c7 04 24 c0 77 10 00 	movl   $0x1077c0,(%esp)
  100417:	e8 b4 36 00 00       	call   103ad0 <release>
  ilock(ip);
  10041c:	8b 45 08             	mov    0x8(%ebp),%eax
  10041f:	89 04 24             	mov    %eax,(%esp)
  100422:	e8 69 17 00 00       	call   101b90 <ilock>

  return n;
}
  100427:	83 c4 1c             	add    $0x1c,%esp
  10042a:	89 f0                	mov    %esi,%eax
  10042c:	5b                   	pop    %ebx
  10042d:	5e                   	pop    %esi
  10042e:	5f                   	pop    %edi
  10042f:	5d                   	pop    %ebp
  100430:	c3                   	ret    
  100431:	eb 0d                	jmp    100440 <printint>
  100433:	90                   	nop
  100434:	90                   	nop
  100435:	90                   	nop
  100436:	90                   	nop
  100437:	90                   	nop
  100438:	90                   	nop
  100439:	90                   	nop
  10043a:	90                   	nop
  10043b:	90                   	nop
  10043c:	90                   	nop
  10043d:	90                   	nop
  10043e:	90                   	nop
  10043f:	90                   	nop

00100440 <printint>:
  int locking;
} cons;

static void
printint(int xx, int base, int sgn)
{
  100440:	55                   	push   %ebp
  100441:	89 e5                	mov    %esp,%ebp
  100443:	57                   	push   %edi
  100444:	56                   	push   %esi
  100445:	89 d6                	mov    %edx,%esi
  100447:	53                   	push   %ebx
  100448:	83 ec 1c             	sub    $0x1c,%esp
  static char digits[] = "0123456789abcdef";
  char buf[16];
  int i = 0, neg = 0;
  uint x;

  if(sgn && xx < 0){
  10044b:	85 c9                	test   %ecx,%ecx
  10044d:	74 04                	je     100453 <printint+0x13>
  10044f:	85 c0                	test   %eax,%eax
  100451:	78 55                	js     1004a8 <printint+0x68>
    neg = 1;
    x = -xx;
  } else
    x = xx;
  100453:	31 ff                	xor    %edi,%edi
  100455:	31 c9                	xor    %ecx,%ecx
  100457:	8d 5d d8             	lea    -0x28(%ebp),%ebx
  10045a:	8d b6 00 00 00 00    	lea    0x0(%esi),%esi

  do{
    buf[i++] = digits[x % base];
  100460:	31 d2                	xor    %edx,%edx
  100462:	f7 f6                	div    %esi
  100464:	0f b6 92 ee 64 10 00 	movzbl 0x1064ee(%edx),%edx
  10046b:	88 14 0b             	mov    %dl,(%ebx,%ecx,1)
  10046e:	83 c1 01             	add    $0x1,%ecx
  }while((x /= base) != 0);
  100471:	85 c0                	test   %eax,%eax
  100473:	75 eb                	jne    100460 <printint+0x20>
  if(neg)
  100475:	85 ff                	test   %edi,%edi
  100477:	74 08                	je     100481 <printint+0x41>
    buf[i++] = '-';
  100479:	c6 44 0d d8 2d       	movb   $0x2d,-0x28(%ebp,%ecx,1)
  10047e:	83 c1 01             	add    $0x1,%ecx

  while(--i >= 0)
  100481:	8d 71 ff             	lea    -0x1(%ecx),%esi
  100484:	01 f3                	add    %esi,%ebx
  100486:	66 90                	xchg   %ax,%ax
    consputc(buf[i]);
  100488:	0f be 03             	movsbl (%ebx),%eax
    buf[i++] = digits[x % base];
  }while((x /= base) != 0);
  if(neg)
    buf[i++] = '-';

  while(--i >= 0)
  10048b:	83 ee 01             	sub    $0x1,%esi
  10048e:	83 eb 01             	sub    $0x1,%ebx
    consputc(buf[i]);
  100491:	e8 ca fd ff ff       	call   100260 <consputc>
    buf[i++] = digits[x % base];
  }while((x /= base) != 0);
  if(neg)
    buf[i++] = '-';

  while(--i >= 0)
  100496:	83 fe ff             	cmp    $0xffffffff,%esi
  100499:	75 ed                	jne    100488 <printint+0x48>
    consputc(buf[i]);
}
  10049b:	83 c4 1c             	add    $0x1c,%esp
  10049e:	5b                   	pop    %ebx
  10049f:	5e                   	pop    %esi
  1004a0:	5f                   	pop    %edi
  1004a1:	5d                   	pop    %ebp
  1004a2:	c3                   	ret    
  1004a3:	90                   	nop
  1004a4:	8d 74 26 00          	lea    0x0(%esi,%eiz,1),%esi
  int i = 0, neg = 0;
  uint x;

  if(sgn && xx < 0){
    neg = 1;
    x = -xx;
  1004a8:	f7 d8                	neg    %eax
  1004aa:	bf 01 00 00 00       	mov    $0x1,%edi
  1004af:	eb a4                	jmp    100455 <printint+0x15>
  1004b1:	eb 0d                	jmp    1004c0 <cprintf>
  1004b3:	90                   	nop
  1004b4:	90                   	nop
  1004b5:	90                   	nop
  1004b6:	90                   	nop
  1004b7:	90                   	nop
  1004b8:	90                   	nop
  1004b9:	90                   	nop
  1004ba:	90                   	nop
  1004bb:	90                   	nop
  1004bc:	90                   	nop
  1004bd:	90                   	nop
  1004be:	90                   	nop
  1004bf:	90                   	nop

001004c0 <cprintf>:
}

// Print to the console. only understands %d, %x, %p, %s.
void
cprintf(char *fmt, ...)
{
  1004c0:	55                   	push   %ebp
  1004c1:	89 e5                	mov    %esp,%ebp
  1004c3:	57                   	push   %edi
  1004c4:	56                   	push   %esi
  1004c5:	53                   	push   %ebx
  1004c6:	83 ec 2c             	sub    $0x2c,%esp
  int i, c, state, locking;
  uint *argp;
  char *s;

  locking = cons.locking;
  1004c9:	8b 3d f4 77 10 00    	mov    0x1077f4,%edi
  if(locking)
  1004cf:	85 ff                	test   %edi,%edi
  1004d1:	0f 85 29 01 00 00    	jne    100600 <cprintf+0x140>
    acquire(&cons.lock);

  argp = (uint*)(void*)(&fmt + 1);
  state = 0;
  for(i = 0; (c = fmt[i] & 0xff) != 0; i++){
  1004d7:	8b 4d 08             	mov    0x8(%ebp),%ecx
  1004da:	0f b6 01             	movzbl (%ecx),%eax
  1004dd:	85 c0                	test   %eax,%eax
  1004df:	0f 84 93 00 00 00    	je     100578 <cprintf+0xb8>

  locking = cons.locking;
  if(locking)
    acquire(&cons.lock);

  argp = (uint*)(void*)(&fmt + 1);
  1004e5:	8d 75 0c             	lea    0xc(%ebp),%esi
  1004e8:	31 db                	xor    %ebx,%ebx
  1004ea:	eb 3f                	jmp    10052b <cprintf+0x6b>
  1004ec:	8d 74 26 00          	lea    0x0(%esi,%eiz,1),%esi
      continue;
    }
    c = fmt[++i] & 0xff;
    if(c == 0)
      break;
    switch(c){
  1004f0:	83 fa 25             	cmp    $0x25,%edx
  1004f3:	0f 84 b7 00 00 00    	je     1005b0 <cprintf+0xf0>
  1004f9:	83 fa 64             	cmp    $0x64,%edx
  1004fc:	0f 84 8e 00 00 00    	je     100590 <cprintf+0xd0>
    case '%':
      consputc('%');
      break;
    default:
      // Print unknown % sequence to draw attention.
      consputc('%');
  100502:	b8 25 00 00 00       	mov    $0x25,%eax
  100507:	89 55 e4             	mov    %edx,-0x1c(%ebp)
  10050a:	e8 51 fd ff ff       	call   100260 <consputc>
      consputc(c);
  10050f:	8b 55 e4             	mov    -0x1c(%ebp),%edx
  100512:	89 d0                	mov    %edx,%eax
  100514:	8d 74 26 00          	lea    0x0(%esi,%eiz,1),%esi
  100518:	e8 43 fd ff ff       	call   100260 <consputc>
  10051d:	8b 4d 08             	mov    0x8(%ebp),%ecx
  if(locking)
    acquire(&cons.lock);

  argp = (uint*)(void*)(&fmt + 1);
  state = 0;
  for(i = 0; (c = fmt[i] & 0xff) != 0; i++){
  100520:	83 c3 01             	add    $0x1,%ebx
  100523:	0f b6 04 19          	movzbl (%ecx,%ebx,1),%eax
  100527:	85 c0                	test   %eax,%eax
  100529:	74 4d                	je     100578 <cprintf+0xb8>
    if(c != '%'){
  10052b:	83 f8 25             	cmp    $0x25,%eax
  10052e:	75 e8                	jne    100518 <cprintf+0x58>
      consputc(c);
      continue;
    }
    c = fmt[++i] & 0xff;
  100530:	83 c3 01             	add    $0x1,%ebx
  100533:	0f b6 14 19          	movzbl (%ecx,%ebx,1),%edx
    if(c == 0)
  100537:	85 d2                	test   %edx,%edx
  100539:	74 3d                	je     100578 <cprintf+0xb8>
      break;
    switch(c){
  10053b:	83 fa 70             	cmp    $0x70,%edx
  10053e:	74 12                	je     100552 <cprintf+0x92>
  100540:	7e ae                	jle    1004f0 <cprintf+0x30>
  100542:	83 fa 73             	cmp    $0x73,%edx
  100545:	8d 76 00             	lea    0x0(%esi),%esi
  100548:	74 7e                	je     1005c8 <cprintf+0x108>
  10054a:	83 fa 78             	cmp    $0x78,%edx
  10054d:	8d 76 00             	lea    0x0(%esi),%esi
  100550:	75 b0                	jne    100502 <cprintf+0x42>
    case 'd':
      printint(*argp++, 10, 1);
      break;
    case 'x':
    case 'p':
      printint(*argp++, 16, 0);
  100552:	8b 06                	mov    (%esi),%eax
  100554:	31 c9                	xor    %ecx,%ecx
  100556:	ba 10 00 00 00       	mov    $0x10,%edx
  if(locking)
    acquire(&cons.lock);

  argp = (uint*)(void*)(&fmt + 1);
  state = 0;
  for(i = 0; (c = fmt[i] & 0xff) != 0; i++){
  10055b:	83 c3 01             	add    $0x1,%ebx
    case 'd':
      printint(*argp++, 10, 1);
      break;
    case 'x':
    case 'p':
      printint(*argp++, 16, 0);
  10055e:	83 c6 04             	add    $0x4,%esi
  100561:	e8 da fe ff ff       	call   100440 <printint>
  100566:	8b 4d 08             	mov    0x8(%ebp),%ecx
  if(locking)
    acquire(&cons.lock);

  argp = (uint*)(void*)(&fmt + 1);
  state = 0;
  for(i = 0; (c = fmt[i] & 0xff) != 0; i++){
  100569:	0f b6 04 19          	movzbl (%ecx,%ebx,1),%eax
  10056d:	85 c0                	test   %eax,%eax
  10056f:	75 ba                	jne    10052b <cprintf+0x6b>
  100571:	8d b4 26 00 00 00 00 	lea    0x0(%esi,%eiz,1),%esi
      consputc(c);
      break;
    }
  }

  if(locking)
  100578:	85 ff                	test   %edi,%edi
  10057a:	74 0c                	je     100588 <cprintf+0xc8>
    release(&cons.lock);
  10057c:	c7 04 24 c0 77 10 00 	movl   $0x1077c0,(%esp)
  100583:	e8 48 35 00 00       	call   103ad0 <release>
}
  100588:	83 c4 2c             	add    $0x2c,%esp
  10058b:	5b                   	pop    %ebx
  10058c:	5e                   	pop    %esi
  10058d:	5f                   	pop    %edi
  10058e:	5d                   	pop    %ebp
  10058f:	c3                   	ret    
    c = fmt[++i] & 0xff;
    if(c == 0)
      break;
    switch(c){
    case 'd':
      printint(*argp++, 10, 1);
  100590:	8b 06                	mov    (%esi),%eax
  100592:	b9 01 00 00 00       	mov    $0x1,%ecx
  100597:	ba 0a 00 00 00       	mov    $0xa,%edx
  10059c:	83 c6 04             	add    $0x4,%esi
  10059f:	e8 9c fe ff ff       	call   100440 <printint>
  1005a4:	8b 4d 08             	mov    0x8(%ebp),%ecx
      break;
  1005a7:	e9 74 ff ff ff       	jmp    100520 <cprintf+0x60>
  1005ac:	8d 74 26 00          	lea    0x0(%esi,%eiz,1),%esi
        s = "(null)";
      for(; *s; s++)
        consputc(*s);
      break;
    case '%':
      consputc('%');
  1005b0:	b8 25 00 00 00       	mov    $0x25,%eax
  1005b5:	e8 a6 fc ff ff       	call   100260 <consputc>
  1005ba:	8b 4d 08             	mov    0x8(%ebp),%ecx
      break;
  1005bd:	e9 5e ff ff ff       	jmp    100520 <cprintf+0x60>
  1005c2:	8d b6 00 00 00 00    	lea    0x0(%esi),%esi
    case 'x':
    case 'p':
      printint(*argp++, 16, 0);
      break;
    case 's':
      if((s = (char*)*argp++) == 0)
  1005c8:	8b 16                	mov    (%esi),%edx
  1005ca:	83 c6 04             	add    $0x4,%esi
  1005cd:	85 d2                	test   %edx,%edx
  1005cf:	74 47                	je     100618 <cprintf+0x158>
        s = "(null)";
      for(; *s; s++)
  1005d1:	0f b6 02             	movzbl (%edx),%eax
  1005d4:	84 c0                	test   %al,%al
  1005d6:	0f 84 44 ff ff ff    	je     100520 <cprintf+0x60>
  1005dc:	8d 74 26 00          	lea    0x0(%esi,%eiz,1),%esi
        consputc(*s);
  1005e0:	0f be c0             	movsbl %al,%eax
  1005e3:	89 55 e4             	mov    %edx,-0x1c(%ebp)
  1005e6:	e8 75 fc ff ff       	call   100260 <consputc>
      printint(*argp++, 16, 0);
      break;
    case 's':
      if((s = (char*)*argp++) == 0)
        s = "(null)";
      for(; *s; s++)
  1005eb:	8b 55 e4             	mov    -0x1c(%ebp),%edx
  1005ee:	83 c2 01             	add    $0x1,%edx
  1005f1:	0f b6 02             	movzbl (%edx),%eax
  1005f4:	84 c0                	test   %al,%al
  1005f6:	75 e8                	jne    1005e0 <cprintf+0x120>
  1005f8:	e9 20 ff ff ff       	jmp    10051d <cprintf+0x5d>
  1005fd:	8d 76 00             	lea    0x0(%esi),%esi
  uint *argp;
  char *s;

  locking = cons.locking;
  if(locking)
    acquire(&cons.lock);
  100600:	c7 04 24 c0 77 10 00 	movl   $0x1077c0,(%esp)
  100607:	e8 14 35 00 00       	call   103b20 <acquire>
  10060c:	e9 c6 fe ff ff       	jmp    1004d7 <cprintf+0x17>
  100611:	8d b4 26 00 00 00 00 	lea    0x0(%esi,%eiz,1),%esi
    case 'x':
    case 'p':
      printint(*argp++, 16, 0);
      break;
    case 's':
      if((s = (char*)*argp++) == 0)
  100618:	ba d4 64 10 00       	mov    $0x1064d4,%edx
  10061d:	eb b2                	jmp    1005d1 <cprintf+0x111>
  10061f:	90                   	nop

00100620 <consoleread>:
  release(&input.lock);
}

int
consoleread(struct inode *ip, char *dst, int n)
{
  100620:	55                   	push   %ebp
  100621:	89 e5                	mov    %esp,%ebp
  100623:	57                   	push   %edi
  100624:	56                   	push   %esi
  100625:	53                   	push   %ebx
  100626:	83 ec 3c             	sub    $0x3c,%esp
  100629:	8b 5d 10             	mov    0x10(%ebp),%ebx
  10062c:	8b 7d 08             	mov    0x8(%ebp),%edi
  10062f:	8b 75 0c             	mov    0xc(%ebp),%esi
  uint target;
  int c;

  iunlock(ip);
  100632:	89 3c 24             	mov    %edi,(%esp)
  100635:	e8 16 11 00 00       	call   101750 <iunlock>
  target = n;
  10063a:	89 5d e4             	mov    %ebx,-0x1c(%ebp)
  acquire(&input.lock);
  10063d:	c7 04 24 a0 8f 10 00 	movl   $0x108fa0,(%esp)
  100644:	e8 d7 34 00 00       	call   103b20 <acquire>
  while(n > 0){
  100649:	85 db                	test   %ebx,%ebx
  10064b:	7f 2c                	jg     100679 <consoleread+0x59>
  10064d:	e9 c0 00 00 00       	jmp    100712 <consoleread+0xf2>
  100652:	8d b6 00 00 00 00    	lea    0x0(%esi),%esi
    while(input.r == input.w){
      if(proc->killed){
  100658:	65 a1 04 00 00 00    	mov    %gs:0x4,%eax
  10065e:	8b 40 24             	mov    0x24(%eax),%eax
  100661:	85 c0                	test   %eax,%eax
  100663:	75 5b                	jne    1006c0 <consoleread+0xa0>
        release(&input.lock);
        ilock(ip);
        return -1;
      }
      sleep(&input.r, &input.lock);
  100665:	c7 44 24 04 a0 8f 10 	movl   $0x108fa0,0x4(%esp)
  10066c:	00 
  10066d:	c7 04 24 54 90 10 00 	movl   $0x109054,(%esp)
  100674:	e8 f7 2a 00 00       	call   103170 <sleep>

  iunlock(ip);
  target = n;
  acquire(&input.lock);
  while(n > 0){
    while(input.r == input.w){
  100679:	a1 54 90 10 00       	mov    0x109054,%eax
  10067e:	3b 05 58 90 10 00    	cmp    0x109058,%eax
  100684:	74 d2                	je     100658 <consoleread+0x38>
        ilock(ip);
        return -1;
      }
      sleep(&input.r, &input.lock);
    }
    c = input.buf[input.r++ % INPUT_BUF];
  100686:	89 c2                	mov    %eax,%edx
  100688:	83 e2 7f             	and    $0x7f,%edx
  10068b:	0f b6 8a d4 8f 10 00 	movzbl 0x108fd4(%edx),%ecx
  100692:	0f be d1             	movsbl %cl,%edx
  100695:	89 55 d4             	mov    %edx,-0x2c(%ebp)
  100698:	8d 50 01             	lea    0x1(%eax),%edx
    if(c == C('D')){  // EOF
  10069b:	83 7d d4 04          	cmpl   $0x4,-0x2c(%ebp)
        ilock(ip);
        return -1;
      }
      sleep(&input.r, &input.lock);
    }
    c = input.buf[input.r++ % INPUT_BUF];
  10069f:	89 15 54 90 10 00    	mov    %edx,0x109054
    if(c == C('D')){  // EOF
  1006a5:	74 3a                	je     1006e1 <consoleread+0xc1>
        // caller gets a 0-byte result.
        input.r--;
      }
      break;
    }
    *dst++ = c;
  1006a7:	88 0e                	mov    %cl,(%esi)
    --n;
  1006a9:	83 eb 01             	sub    $0x1,%ebx
    if(c == '\n')
  1006ac:	83 7d d4 0a          	cmpl   $0xa,-0x2c(%ebp)
  1006b0:	74 39                	je     1006eb <consoleread+0xcb>
  int c;

  iunlock(ip);
  target = n;
  acquire(&input.lock);
  while(n > 0){
  1006b2:	85 db                	test   %ebx,%ebx
  1006b4:	7e 35                	jle    1006eb <consoleread+0xcb>
        // caller gets a 0-byte result.
        input.r--;
      }
      break;
    }
    *dst++ = c;
  1006b6:	83 c6 01             	add    $0x1,%esi
  1006b9:	eb be                	jmp    100679 <consoleread+0x59>
  1006bb:	90                   	nop
  1006bc:	8d 74 26 00          	lea    0x0(%esi,%eiz,1),%esi
  target = n;
  acquire(&input.lock);
  while(n > 0){
    while(input.r == input.w){
      if(proc->killed){
        release(&input.lock);
  1006c0:	c7 04 24 a0 8f 10 00 	movl   $0x108fa0,(%esp)
  1006c7:	e8 04 34 00 00       	call   103ad0 <release>
        ilock(ip);
  1006cc:	89 3c 24             	mov    %edi,(%esp)
  1006cf:	e8 bc 14 00 00       	call   101b90 <ilock>
  }
  release(&input.lock);
  ilock(ip);

  return target - n;
}
  1006d4:	83 c4 3c             	add    $0x3c,%esp
  acquire(&input.lock);
  while(n > 0){
    while(input.r == input.w){
      if(proc->killed){
        release(&input.lock);
        ilock(ip);
  1006d7:	b8 ff ff ff ff       	mov    $0xffffffff,%eax
  }
  release(&input.lock);
  ilock(ip);

  return target - n;
}
  1006dc:	5b                   	pop    %ebx
  1006dd:	5e                   	pop    %esi
  1006de:	5f                   	pop    %edi
  1006df:	5d                   	pop    %ebp
  1006e0:	c3                   	ret    
      }
      sleep(&input.r, &input.lock);
    }
    c = input.buf[input.r++ % INPUT_BUF];
    if(c == C('D')){  // EOF
      if(n < target){
  1006e1:	39 5d e4             	cmp    %ebx,-0x1c(%ebp)
  1006e4:	76 05                	jbe    1006eb <consoleread+0xcb>
        // Save ^D for next time, to make sure
        // caller gets a 0-byte result.
        input.r--;
  1006e6:	a3 54 90 10 00       	mov    %eax,0x109054
  1006eb:	8b 45 e4             	mov    -0x1c(%ebp),%eax
  1006ee:	29 d8                	sub    %ebx,%eax
    *dst++ = c;
    --n;
    if(c == '\n')
      break;
  }
  release(&input.lock);
  1006f0:	c7 04 24 a0 8f 10 00 	movl   $0x108fa0,(%esp)
  1006f7:	89 45 e0             	mov    %eax,-0x20(%ebp)
  1006fa:	e8 d1 33 00 00       	call   103ad0 <release>
  ilock(ip);
  1006ff:	89 3c 24             	mov    %edi,(%esp)
  100702:	e8 89 14 00 00       	call   101b90 <ilock>
  100707:	8b 45 e0             	mov    -0x20(%ebp),%eax

  return target - n;
}
  10070a:	83 c4 3c             	add    $0x3c,%esp
  10070d:	5b                   	pop    %ebx
  10070e:	5e                   	pop    %esi
  10070f:	5f                   	pop    %edi
  100710:	5d                   	pop    %ebp
  100711:	c3                   	ret    
  iunlock(ip);
  target = n;
  acquire(&input.lock);
  while(n > 0){
    while(input.r == input.w){
      if(proc->killed){
  100712:	31 c0                	xor    %eax,%eax
  100714:	eb da                	jmp    1006f0 <consoleread+0xd0>
  100716:	8d 76 00             	lea    0x0(%esi),%esi
  100719:	8d bc 27 00 00 00 00 	lea    0x0(%edi,%eiz,1),%edi

00100720 <consoleintr>:

#define C(x)  ((x)-'@')  // Control-x

void
consoleintr(int (*getc)(void))
{
  100720:	55                   	push   %ebp
  100721:	89 e5                	mov    %esp,%ebp
  100723:	57                   	push   %edi
      }
      break;
    default:
      if(c != 0 && input.e-input.r < INPUT_BUF){
        c = (c == '\r') ? '\n' : c;
        input.buf[input.e++ % INPUT_BUF] = c;
  100724:	bf d0 8f 10 00       	mov    $0x108fd0,%edi

#define C(x)  ((x)-'@')  // Control-x

void
consoleintr(int (*getc)(void))
{
  100729:	56                   	push   %esi
  10072a:	53                   	push   %ebx
  10072b:	83 ec 1c             	sub    $0x1c,%esp
  10072e:	8b 75 08             	mov    0x8(%ebp),%esi
  int c;

  acquire(&input.lock);
  100731:	c7 04 24 a0 8f 10 00 	movl   $0x108fa0,(%esp)
  100738:	e8 e3 33 00 00       	call   103b20 <acquire>
  10073d:	8d 76 00             	lea    0x0(%esi),%esi
  while((c = getc()) >= 0){
  100740:	ff d6                	call   *%esi
  100742:	85 c0                	test   %eax,%eax
  100744:	89 c3                	mov    %eax,%ebx
  100746:	0f 88 9c 00 00 00    	js     1007e8 <consoleintr+0xc8>
    switch(c){
  10074c:	83 fb 10             	cmp    $0x10,%ebx
  10074f:	90                   	nop
  100750:	0f 84 1a 01 00 00    	je     100870 <consoleintr+0x150>
  100756:	0f 8f a4 00 00 00    	jg     100800 <consoleintr+0xe0>
  10075c:	83 fb 08             	cmp    $0x8,%ebx
  10075f:	90                   	nop
  100760:	0f 84 a8 00 00 00    	je     10080e <consoleintr+0xee>
        input.e--;
        consputc(BACKSPACE);
      }
      break;
    default:
      if(c != 0 && input.e-input.r < INPUT_BUF){
  100766:	85 db                	test   %ebx,%ebx
  100768:	74 d6                	je     100740 <consoleintr+0x20>
  10076a:	a1 5c 90 10 00       	mov    0x10905c,%eax
  10076f:	89 c2                	mov    %eax,%edx
  100771:	2b 15 54 90 10 00    	sub    0x109054,%edx
  100777:	83 fa 7f             	cmp    $0x7f,%edx
  10077a:	77 c4                	ja     100740 <consoleintr+0x20>
        c = (c == '\r') ? '\n' : c;
  10077c:	83 fb 0d             	cmp    $0xd,%ebx
  10077f:	0f 84 f8 00 00 00    	je     10087d <consoleintr+0x15d>
        input.buf[input.e++ % INPUT_BUF] = c;
  100785:	89 c2                	mov    %eax,%edx
  100787:	83 c0 01             	add    $0x1,%eax
  10078a:	83 e2 7f             	and    $0x7f,%edx
  10078d:	88 5c 17 04          	mov    %bl,0x4(%edi,%edx,1)
  100791:	a3 5c 90 10 00       	mov    %eax,0x10905c
        consputc(c);
  100796:	89 d8                	mov    %ebx,%eax
  100798:	e8 c3 fa ff ff       	call   100260 <consputc>
        if(c == '\n' || c == C('D') || input.e == input.r+INPUT_BUF){
  10079d:	83 fb 04             	cmp    $0x4,%ebx
  1007a0:	0f 84 f3 00 00 00    	je     100899 <consoleintr+0x179>
  1007a6:	83 fb 0a             	cmp    $0xa,%ebx
  1007a9:	0f 84 ea 00 00 00    	je     100899 <consoleintr+0x179>
  1007af:	8b 15 54 90 10 00    	mov    0x109054,%edx
  1007b5:	a1 5c 90 10 00       	mov    0x10905c,%eax
  1007ba:	83 ea 80             	sub    $0xffffff80,%edx
  1007bd:	39 d0                	cmp    %edx,%eax
  1007bf:	0f 85 7b ff ff ff    	jne    100740 <consoleintr+0x20>
          input.w = input.e;
  1007c5:	a3 58 90 10 00       	mov    %eax,0x109058
          wakeup(&input.r);
  1007ca:	c7 04 24 54 90 10 00 	movl   $0x109054,(%esp)
  1007d1:	e8 7a 28 00 00       	call   103050 <wakeup>
consoleintr(int (*getc)(void))
{
  int c;

  acquire(&input.lock);
  while((c = getc()) >= 0){
  1007d6:	ff d6                	call   *%esi
  1007d8:	85 c0                	test   %eax,%eax
  1007da:	89 c3                	mov    %eax,%ebx
  1007dc:	0f 89 6a ff ff ff    	jns    10074c <consoleintr+0x2c>
  1007e2:	8d b6 00 00 00 00    	lea    0x0(%esi),%esi
        }
      }
      break;
    }
  }
  release(&input.lock);
  1007e8:	c7 45 08 a0 8f 10 00 	movl   $0x108fa0,0x8(%ebp)
}
  1007ef:	83 c4 1c             	add    $0x1c,%esp
  1007f2:	5b                   	pop    %ebx
  1007f3:	5e                   	pop    %esi
  1007f4:	5f                   	pop    %edi
  1007f5:	5d                   	pop    %ebp
        }
      }
      break;
    }
  }
  release(&input.lock);
  1007f6:	e9 d5 32 00 00       	jmp    103ad0 <release>
  1007fb:	90                   	nop
  1007fc:	8d 74 26 00          	lea    0x0(%esi,%eiz,1),%esi
{
  int c;

  acquire(&input.lock);
  while((c = getc()) >= 0){
    switch(c){
  100800:	83 fb 15             	cmp    $0x15,%ebx
  100803:	74 57                	je     10085c <consoleintr+0x13c>
  100805:	83 fb 7f             	cmp    $0x7f,%ebx
  100808:	0f 85 58 ff ff ff    	jne    100766 <consoleintr+0x46>
        input.e--;
        consputc(BACKSPACE);
      }
      break;
    case C('H'): case '\x7f':  // Backspace
      if(input.e != input.w){
  10080e:	a1 5c 90 10 00       	mov    0x10905c,%eax
  100813:	3b 05 58 90 10 00    	cmp    0x109058,%eax
  100819:	0f 84 21 ff ff ff    	je     100740 <consoleintr+0x20>
        input.e--;
  10081f:	83 e8 01             	sub    $0x1,%eax
  100822:	a3 5c 90 10 00       	mov    %eax,0x10905c
        consputc(BACKSPACE);
  100827:	b8 00 01 00 00       	mov    $0x100,%eax
  10082c:	e8 2f fa ff ff       	call   100260 <consputc>
  100831:	e9 0a ff ff ff       	jmp    100740 <consoleintr+0x20>
  100836:	66 90                	xchg   %ax,%ax
    case C('P'):  // Process listing.
      procdump();
      break;
    case C('U'):  // Kill line.
      while(input.e != input.w &&
            input.buf[(input.e-1) % INPUT_BUF] != '\n'){
  100838:	83 e8 01             	sub    $0x1,%eax
  10083b:	89 c2                	mov    %eax,%edx
  10083d:	83 e2 7f             	and    $0x7f,%edx
  100840:	80 ba d4 8f 10 00 0a 	cmpb   $0xa,0x108fd4(%edx)
  100847:	0f 84 f3 fe ff ff    	je     100740 <consoleintr+0x20>
        input.e--;
  10084d:	a3 5c 90 10 00       	mov    %eax,0x10905c
        consputc(BACKSPACE);
  100852:	b8 00 01 00 00       	mov    $0x100,%eax
  100857:	e8 04 fa ff ff       	call   100260 <consputc>
    switch(c){
    case C('P'):  // Process listing.
      procdump();
      break;
    case C('U'):  // Kill line.
      while(input.e != input.w &&
  10085c:	a1 5c 90 10 00       	mov    0x10905c,%eax
  100861:	3b 05 58 90 10 00    	cmp    0x109058,%eax
  100867:	75 cf                	jne    100838 <consoleintr+0x118>
  100869:	e9 d2 fe ff ff       	jmp    100740 <consoleintr+0x20>
  10086e:	66 90                	xchg   %ax,%ax

  acquire(&input.lock);
  while((c = getc()) >= 0){
    switch(c){
    case C('P'):  // Process listing.
      procdump();
  100870:	e8 2b 30 00 00       	call   1038a0 <procdump>
  100875:	8d 76 00             	lea    0x0(%esi),%esi
      break;
  100878:	e9 c3 fe ff ff       	jmp    100740 <consoleintr+0x20>
      }
      break;
    default:
      if(c != 0 && input.e-input.r < INPUT_BUF){
        c = (c == '\r') ? '\n' : c;
        input.buf[input.e++ % INPUT_BUF] = c;
  10087d:	89 c2                	mov    %eax,%edx
  10087f:	83 c0 01             	add    $0x1,%eax
  100882:	83 e2 7f             	and    $0x7f,%edx
  100885:	c6 44 17 04 0a       	movb   $0xa,0x4(%edi,%edx,1)
  10088a:	a3 5c 90 10 00       	mov    %eax,0x10905c
        consputc(c);
  10088f:	b8 0a 00 00 00       	mov    $0xa,%eax
  100894:	e8 c7 f9 ff ff       	call   100260 <consputc>
  100899:	a1 5c 90 10 00       	mov    0x10905c,%eax
  10089e:	e9 22 ff ff ff       	jmp    1007c5 <consoleintr+0xa5>
  1008a3:	8d b6 00 00 00 00    	lea    0x0(%esi),%esi
  1008a9:	8d bc 27 00 00 00 00 	lea    0x0(%edi,%eiz,1),%edi

001008b0 <panic>:
    release(&cons.lock);
}

void
panic(char *s)
{
  1008b0:	55                   	push   %ebp
  1008b1:	89 e5                	mov    %esp,%ebp
  1008b3:	56                   	push   %esi
  1008b4:	53                   	push   %ebx
  1008b5:	83 ec 40             	sub    $0x40,%esp
}

static inline void
cli(void)
{
  asm volatile("cli");
  1008b8:	fa                   	cli    
  int i;
  uint pcs[10];
  
  cli();
  cons.locking = 0;
  cprintf("cpu%d: panic: ", cpu->id);
  1008b9:	65 a1 00 00 00 00    	mov    %gs:0x0,%eax
  cprintf(s);
  cprintf("\n");
  getcallerpcs(&s, pcs);
  1008bf:	8d 75 d0             	lea    -0x30(%ebp),%esi
  1008c2:	31 db                	xor    %ebx,%ebx
{
  int i;
  uint pcs[10];
  
  cli();
  cons.locking = 0;
  1008c4:	c7 05 f4 77 10 00 00 	movl   $0x0,0x1077f4
  1008cb:	00 00 00 
  cprintf("cpu%d: panic: ", cpu->id);
  1008ce:	0f b6 00             	movzbl (%eax),%eax
  1008d1:	c7 04 24 db 64 10 00 	movl   $0x1064db,(%esp)
  1008d8:	89 44 24 04          	mov    %eax,0x4(%esp)
  1008dc:	e8 df fb ff ff       	call   1004c0 <cprintf>
  cprintf(s);
  1008e1:	8b 45 08             	mov    0x8(%ebp),%eax
  1008e4:	89 04 24             	mov    %eax,(%esp)
  1008e7:	e8 d4 fb ff ff       	call   1004c0 <cprintf>
  cprintf("\n");
  1008ec:	c7 04 24 16 69 10 00 	movl   $0x106916,(%esp)
  1008f3:	e8 c8 fb ff ff       	call   1004c0 <cprintf>
  getcallerpcs(&s, pcs);
  1008f8:	8d 45 08             	lea    0x8(%ebp),%eax
  1008fb:	89 74 24 04          	mov    %esi,0x4(%esp)
  1008ff:	89 04 24             	mov    %eax,(%esp)
  100902:	e8 a9 30 00 00       	call   1039b0 <getcallerpcs>
  100907:	90                   	nop
  for(i=0; i<10; i++)
    cprintf(" %p", pcs[i]);
  100908:	8b 04 9e             	mov    (%esi,%ebx,4),%eax
  cons.locking = 0;
  cprintf("cpu%d: panic: ", cpu->id);
  cprintf(s);
  cprintf("\n");
  getcallerpcs(&s, pcs);
  for(i=0; i<10; i++)
  10090b:	83 c3 01             	add    $0x1,%ebx
    cprintf(" %p", pcs[i]);
  10090e:	c7 04 24 ea 64 10 00 	movl   $0x1064ea,(%esp)
  100915:	89 44 24 04          	mov    %eax,0x4(%esp)
  100919:	e8 a2 fb ff ff       	call   1004c0 <cprintf>
  cons.locking = 0;
  cprintf("cpu%d: panic: ", cpu->id);
  cprintf(s);
  cprintf("\n");
  getcallerpcs(&s, pcs);
  for(i=0; i<10; i++)
  10091e:	83 fb 0a             	cmp    $0xa,%ebx
  100921:	75 e5                	jne    100908 <panic+0x58>
    cprintf(" %p", pcs[i]);
  panicked = 1; // freeze other CPU
  100923:	c7 05 a0 77 10 00 01 	movl   $0x1,0x1077a0
  10092a:	00 00 00 
  10092d:	eb fe                	jmp    10092d <panic+0x7d>
  10092f:	90                   	nop

00100930 <exec>:
#include "x86.h"
#include "elf.h"

int
exec(char *path, char **argv)
{
  100930:	55                   	push   %ebp
  100931:	89 e5                	mov    %esp,%ebp
  100933:	57                   	push   %edi
  100934:	56                   	push   %esi
  100935:	53                   	push   %ebx
  100936:	81 ec ac 00 00 00    	sub    $0xac,%esp
  pde_t *pgdir, *oldpgdir;

  pgdir = 0;
  sz = 0;

  if((ip = namei(path)) == 0)
  10093c:	8b 45 08             	mov    0x8(%ebp),%eax
  10093f:	89 04 24             	mov    %eax,(%esp)
  100942:	e8 e9 14 00 00       	call   101e30 <namei>
  100947:	89 c7                	mov    %eax,%edi
  100949:	b8 ff ff ff ff       	mov    $0xffffffff,%eax
  10094e:	85 ff                	test   %edi,%edi
  100950:	0f 84 1a 01 00 00    	je     100a70 <exec+0x140>
    return -1;
  ilock(ip);
  100956:	89 3c 24             	mov    %edi,(%esp)
  100959:	e8 32 12 00 00       	call   101b90 <ilock>

  // Check ELF header
  if(readi(ip, (char*)&elf, 0, sizeof(elf)) < sizeof(elf))
  10095e:	8d 45 94             	lea    -0x6c(%ebp),%eax
  100961:	c7 44 24 0c 34 00 00 	movl   $0x34,0xc(%esp)
  100968:	00 
  100969:	c7 44 24 08 00 00 00 	movl   $0x0,0x8(%esp)
  100970:	00 
  100971:	89 44 24 04          	mov    %eax,0x4(%esp)
  100975:	89 3c 24             	mov    %edi,(%esp)
  100978:	e8 d3 09 00 00       	call   101350 <readi>
  10097d:	83 f8 33             	cmp    $0x33,%eax
  100980:	0f 86 dd 00 00 00    	jbe    100a63 <exec+0x133>
    goto bad;
  if(elf.magic != ELF_MAGIC)
  100986:	81 7d 94 7f 45 4c 46 	cmpl   $0x464c457f,-0x6c(%ebp)
  10098d:	0f 85 d0 00 00 00    	jne    100a63 <exec+0x133>
  100993:	90                   	nop
  100994:	8d 74 26 00          	lea    0x0(%esi,%eiz,1),%esi
    goto bad;

  if(!(pgdir = setupkvm()))
  100998:	e8 c3 54 00 00       	call   105e60 <setupkvm>
  10099d:	85 c0                	test   %eax,%eax
  10099f:	89 45 80             	mov    %eax,-0x80(%ebp)
  1009a2:	0f 84 bb 00 00 00    	je     100a63 <exec+0x133>
    goto bad;

  // Load program into memory.
  for(i=0, off=elf.phoff; i<elf.phnum; i++, off+=sizeof(ph)){
  1009a8:	66 83 7d c0 00       	cmpw   $0x0,-0x40(%ebp)
  1009ad:	8b 75 b0             	mov    -0x50(%ebp),%esi
  1009b0:	0f 84 0d 03 00 00    	je     100cc3 <exec+0x393>
  1009b6:	c7 45 84 00 00 00 00 	movl   $0x0,-0x7c(%ebp)
  1009bd:	31 db                	xor    %ebx,%ebx
  1009bf:	eb 19                	jmp    1009da <exec+0xaa>
  1009c1:	8d b4 26 00 00 00 00 	lea    0x0(%esi,%eiz,1),%esi
  1009c8:	0f b7 45 c0          	movzwl -0x40(%ebp),%eax
  1009cc:	83 c3 01             	add    $0x1,%ebx
  1009cf:	39 d8                	cmp    %ebx,%eax
  1009d1:	0f 8e a9 00 00 00    	jle    100a80 <exec+0x150>
  1009d7:	83 c6 20             	add    $0x20,%esi
    if(readi(ip, (char*)&ph, off, sizeof(ph)) != sizeof(ph))
  1009da:	8d 55 c8             	lea    -0x38(%ebp),%edx
  1009dd:	c7 44 24 0c 20 00 00 	movl   $0x20,0xc(%esp)
  1009e4:	00 
  1009e5:	89 74 24 08          	mov    %esi,0x8(%esp)
  1009e9:	89 54 24 04          	mov    %edx,0x4(%esp)
  1009ed:	89 3c 24             	mov    %edi,(%esp)
  1009f0:	e8 5b 09 00 00       	call   101350 <readi>
  1009f5:	83 f8 20             	cmp    $0x20,%eax
  1009f8:	75 5e                	jne    100a58 <exec+0x128>
      goto bad;
    if(ph.type != ELF_PROG_LOAD)
  1009fa:	83 7d c8 01          	cmpl   $0x1,-0x38(%ebp)
  1009fe:	75 c8                	jne    1009c8 <exec+0x98>
      continue;
    if(ph.memsz < ph.filesz)
  100a00:	8b 45 dc             	mov    -0x24(%ebp),%eax
  100a03:	3b 45 d8             	cmp    -0x28(%ebp),%eax
  100a06:	72 50                	jb     100a58 <exec+0x128>
      goto bad;
    if(!(sz = allocuvm(pgdir, sz, ph.va + ph.memsz)))
  100a08:	03 45 d0             	add    -0x30(%ebp),%eax
  100a0b:	89 44 24 08          	mov    %eax,0x8(%esp)
  100a0f:	8b 4d 84             	mov    -0x7c(%ebp),%ecx
  100a12:	89 4c 24 04          	mov    %ecx,0x4(%esp)
  100a16:	8b 45 80             	mov    -0x80(%ebp),%eax
  100a19:	89 04 24             	mov    %eax,(%esp)
  100a1c:	e8 ff 56 00 00       	call   106120 <allocuvm>
  100a21:	85 c0                	test   %eax,%eax
  100a23:	89 45 84             	mov    %eax,-0x7c(%ebp)
  100a26:	74 30                	je     100a58 <exec+0x128>
      goto bad;
    if(!loaduvm(pgdir, (char *)ph.va, ip, ph.offset, ph.filesz))
  100a28:	8b 45 d8             	mov    -0x28(%ebp),%eax
  100a2b:	89 44 24 10          	mov    %eax,0x10(%esp)
  100a2f:	8b 45 cc             	mov    -0x34(%ebp),%eax
  100a32:	89 7c 24 08          	mov    %edi,0x8(%esp)
  100a36:	89 44 24 0c          	mov    %eax,0xc(%esp)
  100a3a:	8b 45 d0             	mov    -0x30(%ebp),%eax
  100a3d:	89 44 24 04          	mov    %eax,0x4(%esp)
  100a41:	8b 55 80             	mov    -0x80(%ebp),%edx
  100a44:	89 14 24             	mov    %edx,(%esp)
  100a47:	e8 a4 57 00 00       	call   1061f0 <loaduvm>
  100a4c:	85 c0                	test   %eax,%eax
  100a4e:	0f 85 74 ff ff ff    	jne    1009c8 <exec+0x98>
  100a54:	8d 74 26 00          	lea    0x0(%esi,%eiz,1),%esi
  freevm(oldpgdir);

  return 0;

 bad:
  if(pgdir) freevm(pgdir);
  100a58:	8b 45 80             	mov    -0x80(%ebp),%eax
  100a5b:	89 04 24             	mov    %eax,(%esp)
  100a5e:	e8 7d 55 00 00       	call   105fe0 <freevm>
  iunlockput(ip);
  100a63:	89 3c 24             	mov    %edi,(%esp)
  100a66:	e8 35 10 00 00       	call   101aa0 <iunlockput>
  100a6b:	b8 ff ff ff ff       	mov    $0xffffffff,%eax
  return -1;
}
  100a70:	81 c4 ac 00 00 00    	add    $0xac,%esp
  100a76:	5b                   	pop    %ebx
  100a77:	5e                   	pop    %esi
  100a78:	5f                   	pop    %edi
  100a79:	5d                   	pop    %ebp
  100a7a:	c3                   	ret    
  100a7b:	90                   	nop
  100a7c:	8d 74 26 00          	lea    0x0(%esi,%eiz,1),%esi

  if(!(pgdir = setupkvm()))
    goto bad;

  // Load program into memory.
  for(i=0, off=elf.phoff; i<elf.phnum; i++, off+=sizeof(ph)){
  100a80:	8b 4d 84             	mov    -0x7c(%ebp),%ecx
  100a83:	81 c1 ff 0f 00 00    	add    $0xfff,%ecx
  100a89:	81 e1 00 f0 ff ff    	and    $0xfffff000,%ecx
  100a8f:	89 cb                	mov    %ecx,%ebx
  100a91:	89 4d 84             	mov    %ecx,-0x7c(%ebp)
  100a94:	81 c3 00 10 00 00    	add    $0x1000,%ebx
    if(!(sz = allocuvm(pgdir, sz, ph.va + ph.memsz)))
      goto bad;
    if(!loaduvm(pgdir, (char *)ph.va, ip, ph.offset, ph.filesz))
      goto bad;
  }
  iunlockput(ip);
  100a9a:	89 3c 24             	mov    %edi,(%esp)
  100a9d:	e8 fe 0f 00 00       	call   101aa0 <iunlockput>

  // Allocate and initialize stack at sz
  sz = spbottom = PGROUNDUP(sz);
  if(!(sz = allocuvm(pgdir, sz, sz + PGSIZE)))
  100aa2:	89 5c 24 08          	mov    %ebx,0x8(%esp)
  100aa6:	8b 45 84             	mov    -0x7c(%ebp),%eax
  100aa9:	89 44 24 04          	mov    %eax,0x4(%esp)
  100aad:	8b 55 80             	mov    -0x80(%ebp),%edx
  100ab0:	89 14 24             	mov    %edx,(%esp)
  100ab3:	e8 68 56 00 00       	call   106120 <allocuvm>
  100ab8:	85 c0                	test   %eax,%eax
  100aba:	89 85 74 ff ff ff    	mov    %eax,-0x8c(%ebp)
  100ac0:	74 96                	je     100a58 <exec+0x128>
    goto bad;
  mem = uva2ka(pgdir, (char *)spbottom);
  100ac2:	8b 4d 84             	mov    -0x7c(%ebp),%ecx
  100ac5:	89 4c 24 04          	mov    %ecx,0x4(%esp)
  100ac9:	8b 45 80             	mov    -0x80(%ebp),%eax
  100acc:	89 04 24             	mov    %eax,(%esp)
  100acf:	e8 cc 52 00 00       	call   105da0 <uva2ka>

  arglen = 0;
  for(argc=0; argv[argc]; argc++)
  100ad4:	8b 4d 0c             	mov    0xc(%ebp),%ecx

  // Allocate and initialize stack at sz
  sz = spbottom = PGROUNDUP(sz);
  if(!(sz = allocuvm(pgdir, sz, sz + PGSIZE)))
    goto bad;
  mem = uva2ka(pgdir, (char *)spbottom);
  100ad7:	89 85 7c ff ff ff    	mov    %eax,-0x84(%ebp)

  arglen = 0;
  for(argc=0; argv[argc]; argc++)
  100add:	8b 11                	mov    (%ecx),%edx
  100adf:	85 d2                	test   %edx,%edx
  100ae1:	0f 84 ac 01 00 00    	je     100c93 <exec+0x363>
  100ae7:	31 f6                	xor    %esi,%esi
  100ae9:	31 db                	xor    %ebx,%ebx
  100aeb:	89 cf                	mov    %ecx,%edi
  100aed:	8d 76 00             	lea    0x0(%esi),%esi
    arglen += strlen(argv[argc]) + 1;
  100af0:	89 14 24             	mov    %edx,(%esp)
  if(!(sz = allocuvm(pgdir, sz, sz + PGSIZE)))
    goto bad;
  mem = uva2ka(pgdir, (char *)spbottom);

  arglen = 0;
  for(argc=0; argv[argc]; argc++)
  100af3:	83 c3 01             	add    $0x1,%ebx
    arglen += strlen(argv[argc]) + 1;
  100af6:	e8 a5 32 00 00       	call   103da0 <strlen>
  if(!(sz = allocuvm(pgdir, sz, sz + PGSIZE)))
    goto bad;
  mem = uva2ka(pgdir, (char *)spbottom);

  arglen = 0;
  for(argc=0; argv[argc]; argc++)
  100afb:	8b 14 9f             	mov    (%edi,%ebx,4),%edx
    arglen += strlen(argv[argc]) + 1;
  100afe:	01 f0                	add    %esi,%eax
  if(!(sz = allocuvm(pgdir, sz, sz + PGSIZE)))
    goto bad;
  mem = uva2ka(pgdir, (char *)spbottom);

  arglen = 0;
  for(argc=0; argv[argc]; argc++)
  100b00:	85 d2                	test   %edx,%edx
    arglen += strlen(argv[argc]) + 1;
  100b02:	8d 70 01             	lea    0x1(%eax),%esi
  if(!(sz = allocuvm(pgdir, sz, sz + PGSIZE)))
    goto bad;
  mem = uva2ka(pgdir, (char *)spbottom);

  arglen = 0;
  for(argc=0; argv[argc]; argc++)
  100b05:	75 e9                	jne    100af0 <exec+0x1c0>
    arglen += strlen(argv[argc]) + 1;
  arglen = (arglen+3) & ~3;

  sp = sz;
  argp = sz - arglen - 4*(argc+1);
  100b07:	8b 8d 74 ff ff ff    	mov    -0x8c(%ebp),%ecx
  if(!(sz = allocuvm(pgdir, sz, sz + PGSIZE)))
    goto bad;
  mem = uva2ka(pgdir, (char *)spbottom);

  arglen = 0;
  for(argc=0; argv[argc]; argc++)
  100b0d:	89 da                	mov    %ebx,%edx
  100b0f:	83 c0 04             	add    $0x4,%eax
  100b12:	f7 d2                	not    %edx
    arglen += strlen(argv[argc]) + 1;
  arglen = (arglen+3) & ~3;

  sp = sz;
  argp = sz - arglen - 4*(argc+1);
  100b14:	83 e0 fc             	and    $0xfffffffc,%eax
  100b17:	89 9d 70 ff ff ff    	mov    %ebx,-0x90(%ebp)
  if(!(sz = allocuvm(pgdir, sz, sz + PGSIZE)))
    goto bad;
  mem = uva2ka(pgdir, (char *)spbottom);

  arglen = 0;
  for(argc=0; argv[argc]; argc++)
  100b1d:	89 df                	mov    %ebx,%edi
  100b1f:	83 ef 01             	sub    $0x1,%edi
    arglen += strlen(argv[argc]) + 1;
  arglen = (arglen+3) & ~3;

  sp = sz;
  argp = sz - arglen - 4*(argc+1);
  100b22:	8d 14 91             	lea    (%ecx,%edx,4),%edx
  100b25:	29 c2                	sub    %eax,%edx
  100b27:	89 95 78 ff ff ff    	mov    %edx,-0x88(%ebp)

  // Copy argv strings and pointers to stack.
  *(uint*)(mem+argp-spbottom + 4*argc) = 0;  // argv[argc]
  100b2d:	89 d1                	mov    %edx,%ecx
  100b2f:	8b 95 7c ff ff ff    	mov    -0x84(%ebp),%edx
  100b35:	2b 4d 84             	sub    -0x7c(%ebp),%ecx
  100b38:	8d 04 99             	lea    (%ecx,%ebx,4),%eax
  100b3b:	c7 04 10 00 00 00 00 	movl   $0x0,(%eax,%edx,1)
  100b42:	8b 75 0c             	mov    0xc(%ebp),%esi
  100b45:	8d 14 bd 00 00 00 00 	lea    0x0(,%edi,4),%edx
  100b4c:	8b 9d 74 ff ff ff    	mov    -0x8c(%ebp),%ebx
  100b52:	01 d6                	add    %edx,%esi
  100b54:	8d 14 11             	lea    (%ecx,%edx,1),%edx
  100b57:	03 95 7c ff ff ff    	add    -0x84(%ebp),%edx
  100b5d:	8d 76 00             	lea    0x0(%esi),%esi
  for(i=argc-1; i>=0; i--){
    len = strlen(argv[i]) + 1;
  100b60:	8b 06                	mov    (%esi),%eax
  sp = sz;
  argp = sz - arglen - 4*(argc+1);

  // Copy argv strings and pointers to stack.
  *(uint*)(mem+argp-spbottom + 4*argc) = 0;  // argv[argc]
  for(i=argc-1; i>=0; i--){
  100b62:	83 ef 01             	sub    $0x1,%edi
    len = strlen(argv[i]) + 1;
  100b65:	89 04 24             	mov    %eax,(%esp)
  100b68:	89 95 6c ff ff ff    	mov    %edx,-0x94(%ebp)
  100b6e:	e8 2d 32 00 00       	call   103da0 <strlen>
    sp -= len;
  100b73:	83 c0 01             	add    $0x1,%eax
  100b76:	29 c3                	sub    %eax,%ebx
    memmove(mem+sp-spbottom, argv[i], len);
  100b78:	89 44 24 08          	mov    %eax,0x8(%esp)
  100b7c:	8b 06                	mov    (%esi),%eax
  sp = sz;
  argp = sz - arglen - 4*(argc+1);

  // Copy argv strings and pointers to stack.
  *(uint*)(mem+argp-spbottom + 4*argc) = 0;  // argv[argc]
  for(i=argc-1; i>=0; i--){
  100b7e:	83 ee 04             	sub    $0x4,%esi
    len = strlen(argv[i]) + 1;
    sp -= len;
    memmove(mem+sp-spbottom, argv[i], len);
  100b81:	89 44 24 04          	mov    %eax,0x4(%esp)
  100b85:	89 d8                	mov    %ebx,%eax
  100b87:	2b 45 84             	sub    -0x7c(%ebp),%eax
  100b8a:	03 85 7c ff ff ff    	add    -0x84(%ebp),%eax
  100b90:	89 04 24             	mov    %eax,(%esp)
  100b93:	e8 a8 30 00 00       	call   103c40 <memmove>
    *(uint*)(mem+argp-spbottom + 4*i) = sp;  // argv[i]
  100b98:	8b 95 6c ff ff ff    	mov    -0x94(%ebp),%edx
  100b9e:	89 1a                	mov    %ebx,(%edx)
  sp = sz;
  argp = sz - arglen - 4*(argc+1);

  // Copy argv strings and pointers to stack.
  *(uint*)(mem+argp-spbottom + 4*argc) = 0;  // argv[argc]
  for(i=argc-1; i>=0; i--){
  100ba0:	83 ea 04             	sub    $0x4,%edx
  100ba3:	83 ff ff             	cmp    $0xffffffff,%edi
  100ba6:	75 b8                	jne    100b60 <exec+0x230>
    *(uint*)(mem+argp-spbottom + 4*i) = sp;  // argv[i]
  }

  // Stack frame for main(argc, argv), below arguments.
  sp = argp;
  sp -= 4;
  100ba8:	8b 85 78 ff ff ff    	mov    -0x88(%ebp),%eax
  *(uint*)(mem+sp-spbottom) = argp;
  100bae:	8b 95 78 ff ff ff    	mov    -0x88(%ebp),%edx
  100bb4:	8b 8d 7c ff ff ff    	mov    -0x84(%ebp),%ecx
    *(uint*)(mem+argp-spbottom + 4*i) = sp;  // argv[i]
  }

  // Stack frame for main(argc, argv), below arguments.
  sp = argp;
  sp -= 4;
  100bba:	83 e8 04             	sub    $0x4,%eax
  *(uint*)(mem+sp-spbottom) = argp;
  100bbd:	2b 45 84             	sub    -0x7c(%ebp),%eax
  100bc0:	89 14 01             	mov    %edx,(%ecx,%eax,1)
  sp -= 4;
  100bc3:	89 d0                	mov    %edx,%eax
  *(uint*)(mem+sp-spbottom) = argc;
  100bc5:	8b 95 70 ff ff ff    	mov    -0x90(%ebp),%edx

  // Stack frame for main(argc, argv), below arguments.
  sp = argp;
  sp -= 4;
  *(uint*)(mem+sp-spbottom) = argp;
  sp -= 4;
  100bcb:	83 e8 08             	sub    $0x8,%eax
  *(uint*)(mem+sp-spbottom) = argc;
  100bce:	2b 45 84             	sub    -0x7c(%ebp),%eax
  100bd1:	89 14 01             	mov    %edx,(%ecx,%eax,1)
  sp -= 4;
  100bd4:	8b 9d 78 ff ff ff    	mov    -0x88(%ebp),%ebx
  100bda:	83 eb 0c             	sub    $0xc,%ebx
  *(uint*)(mem+sp-spbottom) = 0xffffffff;   // fake return pc
  100bdd:	89 d8                	mov    %ebx,%eax
  100bdf:	2b 45 84             	sub    -0x7c(%ebp),%eax
  100be2:	c7 04 01 ff ff ff ff 	movl   $0xffffffff,(%ecx,%eax,1)

  // Save program name for debugging.
  for(last=s=path; *s; s++)
  100be9:	8b 4d 08             	mov    0x8(%ebp),%ecx
  100bec:	0f b6 11             	movzbl (%ecx),%edx
  100bef:	84 d2                	test   %dl,%dl
  100bf1:	74 28                	je     100c1b <exec+0x2eb>
  100bf3:	89 c8                	mov    %ecx,%eax
  100bf5:	83 c0 01             	add    $0x1,%eax
  100bf8:	eb 10                	jmp    100c0a <exec+0x2da>
  100bfa:	8d b6 00 00 00 00    	lea    0x0(%esi),%esi
  100c00:	0f b6 10             	movzbl (%eax),%edx
  100c03:	83 c0 01             	add    $0x1,%eax
  100c06:	84 d2                	test   %dl,%dl
  100c08:	74 11                	je     100c1b <exec+0x2eb>
    if(*s == '/')
  100c0a:	80 fa 2f             	cmp    $0x2f,%dl
  100c0d:	75 f1                	jne    100c00 <exec+0x2d0>
  *(uint*)(mem+sp-spbottom) = argc;
  sp -= 4;
  *(uint*)(mem+sp-spbottom) = 0xffffffff;   // fake return pc

  // Save program name for debugging.
  for(last=s=path; *s; s++)
  100c0f:	0f b6 10             	movzbl (%eax),%edx
    if(*s == '/')
  100c12:	89 c1                	mov    %eax,%ecx
  *(uint*)(mem+sp-spbottom) = argc;
  sp -= 4;
  *(uint*)(mem+sp-spbottom) = 0xffffffff;   // fake return pc

  // Save program name for debugging.
  for(last=s=path; *s; s++)
  100c14:	83 c0 01             	add    $0x1,%eax
  100c17:	84 d2                	test   %dl,%dl
  100c19:	75 ef                	jne    100c0a <exec+0x2da>
    if(*s == '/')
      last = s+1;
  safestrcpy(proc->name, last, sizeof(proc->name));
  100c1b:	65 a1 04 00 00 00    	mov    %gs:0x4,%eax
  100c21:	89 4c 24 04          	mov    %ecx,0x4(%esp)
  100c25:	c7 44 24 08 10 00 00 	movl   $0x10,0x8(%esp)
  100c2c:	00 
  100c2d:	83 c0 70             	add    $0x70,%eax
  100c30:	89 04 24             	mov    %eax,(%esp)
  100c33:	e8 28 31 00 00       	call   103d60 <safestrcpy>

  // Commit to the user image.
  oldpgdir = proc->pgdir;
  proc->pgdir = pgdir;
  100c38:	8b 55 80             	mov    -0x80(%ebp),%edx
    if(*s == '/')
      last = s+1;
  safestrcpy(proc->name, last, sizeof(proc->name));

  // Commit to the user image.
  oldpgdir = proc->pgdir;
  100c3b:	65 a1 04 00 00 00    	mov    %gs:0x4,%eax
  100c41:	8b 70 04             	mov    0x4(%eax),%esi
  proc->pgdir = pgdir;
  100c44:	89 50 04             	mov    %edx,0x4(%eax)
  proc->sz = sz;
  100c47:	8b 8d 74 ff ff ff    	mov    -0x8c(%ebp),%ecx
  100c4d:	65 a1 04 00 00 00    	mov    %gs:0x4,%eax
  100c53:	89 08                	mov    %ecx,(%eax)
  proc->tf->eip = elf.entry;  // main
  100c55:	65 a1 04 00 00 00    	mov    %gs:0x4,%eax
  100c5b:	8b 55 ac             	mov    -0x54(%ebp),%edx
  100c5e:	8b 40 18             	mov    0x18(%eax),%eax
  100c61:	89 50 38             	mov    %edx,0x38(%eax)
  proc->tf->esp = sp;
  100c64:	65 a1 04 00 00 00    	mov    %gs:0x4,%eax
  100c6a:	8b 40 18             	mov    0x18(%eax),%eax
  100c6d:	89 58 44             	mov    %ebx,0x44(%eax)

  switchuvm(proc); 
  100c70:	65 a1 04 00 00 00    	mov    %gs:0x4,%eax
  100c76:	89 04 24             	mov    %eax,(%esp)
  100c79:	e8 32 56 00 00       	call   1062b0 <switchuvm>

  freevm(oldpgdir);
  100c7e:	89 34 24             	mov    %esi,(%esp)
  100c81:	e8 5a 53 00 00       	call   105fe0 <freevm>

 bad:
  if(pgdir) freevm(pgdir);
  iunlockput(ip);
  return -1;
}
  100c86:	81 c4 ac 00 00 00    	add    $0xac,%esp
  proc->tf->eip = elf.entry;  // main
  proc->tf->esp = sp;

  switchuvm(proc); 

  freevm(oldpgdir);
  100c8c:	31 c0                	xor    %eax,%eax

 bad:
  if(pgdir) freevm(pgdir);
  iunlockput(ip);
  return -1;
}
  100c8e:	5b                   	pop    %ebx
  100c8f:	5e                   	pop    %esi
  100c90:	5f                   	pop    %edi
  100c91:	5d                   	pop    %ebp
  100c92:	c3                   	ret    
  for(argc=0; argv[argc]; argc++)
    arglen += strlen(argv[argc]) + 1;
  arglen = (arglen+3) & ~3;

  sp = sz;
  argp = sz - arglen - 4*(argc+1);
  100c93:	8b 95 74 ff ff ff    	mov    -0x8c(%ebp),%edx

  // Copy argv strings and pointers to stack.
  *(uint*)(mem+argp-spbottom + 4*argc) = 0;  // argv[argc]
  100c99:	8b 8d 7c ff ff ff    	mov    -0x84(%ebp),%ecx
  for(argc=0; argv[argc]; argc++)
    arglen += strlen(argv[argc]) + 1;
  arglen = (arglen+3) & ~3;

  sp = sz;
  argp = sz - arglen - 4*(argc+1);
  100c9f:	83 ea 04             	sub    $0x4,%edx

  // Copy argv strings and pointers to stack.
  *(uint*)(mem+argp-spbottom + 4*argc) = 0;  // argv[argc]
  100ca2:	89 d0                	mov    %edx,%eax
  100ca4:	2b 45 84             	sub    -0x7c(%ebp),%eax
  for(argc=0; argv[argc]; argc++)
    arglen += strlen(argv[argc]) + 1;
  arglen = (arglen+3) & ~3;

  sp = sz;
  argp = sz - arglen - 4*(argc+1);
  100ca7:	89 95 78 ff ff ff    	mov    %edx,-0x88(%ebp)

  // Copy argv strings and pointers to stack.
  *(uint*)(mem+argp-spbottom + 4*argc) = 0;  // argv[argc]
  100cad:	c7 04 01 00 00 00 00 	movl   $0x0,(%ecx,%eax,1)
  100cb4:	c7 85 70 ff ff ff 00 	movl   $0x0,-0x90(%ebp)
  100cbb:	00 00 00 
  100cbe:	e9 e5 fe ff ff       	jmp    100ba8 <exec+0x278>

  if(!(pgdir = setupkvm()))
    goto bad;

  // Load program into memory.
  for(i=0, off=elf.phoff; i<elf.phnum; i++, off+=sizeof(ph)){
  100cc3:	bb 00 10 00 00       	mov    $0x1000,%ebx
  100cc8:	c7 45 84 00 00 00 00 	movl   $0x0,-0x7c(%ebp)
  100ccf:	e9 c6 fd ff ff       	jmp    100a9a <exec+0x16a>
  100cd4:	90                   	nop
  100cd5:	90                   	nop
  100cd6:	90                   	nop
  100cd7:	90                   	nop
  100cd8:	90                   	nop
  100cd9:	90                   	nop
  100cda:	90                   	nop
  100cdb:	90                   	nop
  100cdc:	90                   	nop
  100cdd:	90                   	nop
  100cde:	90                   	nop
  100cdf:	90                   	nop

00100ce0 <filewrite>:
}

// Write to file f.  Addr is kernel address.
int
filewrite(struct file *f, char *addr, int n)
{
  100ce0:	55                   	push   %ebp
  100ce1:	89 e5                	mov    %esp,%ebp
  100ce3:	83 ec 38             	sub    $0x38,%esp
  100ce6:	89 5d f4             	mov    %ebx,-0xc(%ebp)
  100ce9:	8b 5d 08             	mov    0x8(%ebp),%ebx
  100cec:	89 75 f8             	mov    %esi,-0x8(%ebp)
  100cef:	8b 75 0c             	mov    0xc(%ebp),%esi
  100cf2:	89 7d fc             	mov    %edi,-0x4(%ebp)
  100cf5:	8b 7d 10             	mov    0x10(%ebp),%edi
  int r;

  if(f->writable == 0)
  100cf8:	80 7b 09 00          	cmpb   $0x0,0x9(%ebx)
  100cfc:	74 5a                	je     100d58 <filewrite+0x78>
    return -1;
  if(f->type == FD_PIPE)
  100cfe:	8b 03                	mov    (%ebx),%eax
  100d00:	83 f8 01             	cmp    $0x1,%eax
  100d03:	74 5b                	je     100d60 <filewrite+0x80>
    return pipewrite(f->pipe, addr, n);
  if(f->type == FD_INODE){
  100d05:	83 f8 02             	cmp    $0x2,%eax
  100d08:	75 6d                	jne    100d77 <filewrite+0x97>
    ilock(f->ip);
  100d0a:	8b 43 10             	mov    0x10(%ebx),%eax
  100d0d:	89 04 24             	mov    %eax,(%esp)
  100d10:	e8 7b 0e 00 00       	call   101b90 <ilock>
    if((r = writei(f->ip, addr, f->off, n)) > 0)
  100d15:	89 7c 24 0c          	mov    %edi,0xc(%esp)
  100d19:	8b 43 14             	mov    0x14(%ebx),%eax
  100d1c:	89 74 24 04          	mov    %esi,0x4(%esp)
  100d20:	89 44 24 08          	mov    %eax,0x8(%esp)
  100d24:	8b 43 10             	mov    0x10(%ebx),%eax
  100d27:	89 04 24             	mov    %eax,(%esp)
  100d2a:	e8 b1 07 00 00       	call   1014e0 <writei>
  100d2f:	85 c0                	test   %eax,%eax
  100d31:	7e 03                	jle    100d36 <filewrite+0x56>
      f->off += r;
  100d33:	01 43 14             	add    %eax,0x14(%ebx)
    iunlock(f->ip);
  100d36:	8b 53 10             	mov    0x10(%ebx),%edx
  100d39:	89 14 24             	mov    %edx,(%esp)
  100d3c:	89 45 e4             	mov    %eax,-0x1c(%ebp)
  100d3f:	e8 0c 0a 00 00       	call   101750 <iunlock>
    return r;
  100d44:	8b 45 e4             	mov    -0x1c(%ebp),%eax
  }
  panic("filewrite");
}
  100d47:	8b 5d f4             	mov    -0xc(%ebp),%ebx
  100d4a:	8b 75 f8             	mov    -0x8(%ebp),%esi
  100d4d:	8b 7d fc             	mov    -0x4(%ebp),%edi
  100d50:	89 ec                	mov    %ebp,%esp
  100d52:	5d                   	pop    %ebp
  100d53:	c3                   	ret    
  100d54:	8d 74 26 00          	lea    0x0(%esi,%eiz,1),%esi
    if((r = writei(f->ip, addr, f->off, n)) > 0)
      f->off += r;
    iunlock(f->ip);
    return r;
  }
  panic("filewrite");
  100d58:	b8 ff ff ff ff       	mov    $0xffffffff,%eax
  100d5d:	eb e8                	jmp    100d47 <filewrite+0x67>
  100d5f:	90                   	nop
  int r;

  if(f->writable == 0)
    return -1;
  if(f->type == FD_PIPE)
    return pipewrite(f->pipe, addr, n);
  100d60:	8b 43 0c             	mov    0xc(%ebx),%eax
      f->off += r;
    iunlock(f->ip);
    return r;
  }
  panic("filewrite");
}
  100d63:	8b 75 f8             	mov    -0x8(%ebp),%esi
  100d66:	8b 5d f4             	mov    -0xc(%ebp),%ebx
  100d69:	8b 7d fc             	mov    -0x4(%ebp),%edi
  int r;

  if(f->writable == 0)
    return -1;
  if(f->type == FD_PIPE)
    return pipewrite(f->pipe, addr, n);
  100d6c:	89 45 08             	mov    %eax,0x8(%ebp)
      f->off += r;
    iunlock(f->ip);
    return r;
  }
  panic("filewrite");
}
  100d6f:	89 ec                	mov    %ebp,%esp
  100d71:	5d                   	pop    %ebp
  int r;

  if(f->writable == 0)
    return -1;
  if(f->type == FD_PIPE)
    return pipewrite(f->pipe, addr, n);
  100d72:	e9 d9 1f 00 00       	jmp    102d50 <pipewrite>
    if((r = writei(f->ip, addr, f->off, n)) > 0)
      f->off += r;
    iunlock(f->ip);
    return r;
  }
  panic("filewrite");
  100d77:	c7 04 24 ff 64 10 00 	movl   $0x1064ff,(%esp)
  100d7e:	e8 2d fb ff ff       	call   1008b0 <panic>
  100d83:	8d b6 00 00 00 00    	lea    0x0(%esi),%esi
  100d89:	8d bc 27 00 00 00 00 	lea    0x0(%edi,%eiz,1),%edi

00100d90 <fileread>:
}

// Read from file f.  Addr is kernel address.
int
fileread(struct file *f, char *addr, int n)
{
  100d90:	55                   	push   %ebp
  100d91:	89 e5                	mov    %esp,%ebp
  100d93:	83 ec 38             	sub    $0x38,%esp
  100d96:	89 5d f4             	mov    %ebx,-0xc(%ebp)
  100d99:	8b 5d 08             	mov    0x8(%ebp),%ebx
  100d9c:	89 75 f8             	mov    %esi,-0x8(%ebp)
  100d9f:	8b 75 0c             	mov    0xc(%ebp),%esi
  100da2:	89 7d fc             	mov    %edi,-0x4(%ebp)
  100da5:	8b 7d 10             	mov    0x10(%ebp),%edi
  int r;

  if(f->readable == 0)
  100da8:	80 7b 08 00          	cmpb   $0x0,0x8(%ebx)
  100dac:	74 5a                	je     100e08 <fileread+0x78>
    return -1;
  if(f->type == FD_PIPE)
  100dae:	8b 03                	mov    (%ebx),%eax
  100db0:	83 f8 01             	cmp    $0x1,%eax
  100db3:	74 5b                	je     100e10 <fileread+0x80>
    return piperead(f->pipe, addr, n);
  if(f->type == FD_INODE){
  100db5:	83 f8 02             	cmp    $0x2,%eax
  100db8:	75 6d                	jne    100e27 <fileread+0x97>
    ilock(f->ip);
  100dba:	8b 43 10             	mov    0x10(%ebx),%eax
  100dbd:	89 04 24             	mov    %eax,(%esp)
  100dc0:	e8 cb 0d 00 00       	call   101b90 <ilock>
    if((r = readi(f->ip, addr, f->off, n)) > 0)
  100dc5:	89 7c 24 0c          	mov    %edi,0xc(%esp)
  100dc9:	8b 43 14             	mov    0x14(%ebx),%eax
  100dcc:	89 74 24 04          	mov    %esi,0x4(%esp)
  100dd0:	89 44 24 08          	mov    %eax,0x8(%esp)
  100dd4:	8b 43 10             	mov    0x10(%ebx),%eax
  100dd7:	89 04 24             	mov    %eax,(%esp)
  100dda:	e8 71 05 00 00       	call   101350 <readi>
  100ddf:	85 c0                	test   %eax,%eax
  100de1:	7e 03                	jle    100de6 <fileread+0x56>
      f->off += r;
  100de3:	01 43 14             	add    %eax,0x14(%ebx)
    iunlock(f->ip);
  100de6:	8b 53 10             	mov    0x10(%ebx),%edx
  100de9:	89 14 24             	mov    %edx,(%esp)
  100dec:	89 45 e4             	mov    %eax,-0x1c(%ebp)
  100def:	e8 5c 09 00 00       	call   101750 <iunlock>
    return r;
  100df4:	8b 45 e4             	mov    -0x1c(%ebp),%eax
  }
  panic("fileread");
}
  100df7:	8b 5d f4             	mov    -0xc(%ebp),%ebx
  100dfa:	8b 75 f8             	mov    -0x8(%ebp),%esi
  100dfd:	8b 7d fc             	mov    -0x4(%ebp),%edi
  100e00:	89 ec                	mov    %ebp,%esp
  100e02:	5d                   	pop    %ebp
  100e03:	c3                   	ret    
  100e04:	8d 74 26 00          	lea    0x0(%esi,%eiz,1),%esi
    if((r = readi(f->ip, addr, f->off, n)) > 0)
      f->off += r;
    iunlock(f->ip);
    return r;
  }
  panic("fileread");
  100e08:	b8 ff ff ff ff       	mov    $0xffffffff,%eax
  100e0d:	eb e8                	jmp    100df7 <fileread+0x67>
  100e0f:	90                   	nop
  int r;

  if(f->readable == 0)
    return -1;
  if(f->type == FD_PIPE)
    return piperead(f->pipe, addr, n);
  100e10:	8b 43 0c             	mov    0xc(%ebx),%eax
      f->off += r;
    iunlock(f->ip);
    return r;
  }
  panic("fileread");
}
  100e13:	8b 75 f8             	mov    -0x8(%ebp),%esi
  100e16:	8b 5d f4             	mov    -0xc(%ebp),%ebx
  100e19:	8b 7d fc             	mov    -0x4(%ebp),%edi
  int r;

  if(f->readable == 0)
    return -1;
  if(f->type == FD_PIPE)
    return piperead(f->pipe, addr, n);
  100e1c:	89 45 08             	mov    %eax,0x8(%ebp)
      f->off += r;
    iunlock(f->ip);
    return r;
  }
  panic("fileread");
}
  100e1f:	89 ec                	mov    %ebp,%esp
  100e21:	5d                   	pop    %ebp
  int r;

  if(f->readable == 0)
    return -1;
  if(f->type == FD_PIPE)
    return piperead(f->pipe, addr, n);
  100e22:	e9 29 1e 00 00       	jmp    102c50 <piperead>
    if((r = readi(f->ip, addr, f->off, n)) > 0)
      f->off += r;
    iunlock(f->ip);
    return r;
  }
  panic("fileread");
  100e27:	c7 04 24 09 65 10 00 	movl   $0x106509,(%esp)
  100e2e:	e8 7d fa ff ff       	call   1008b0 <panic>
  100e33:	8d b6 00 00 00 00    	lea    0x0(%esi),%esi
  100e39:	8d bc 27 00 00 00 00 	lea    0x0(%edi,%eiz,1),%edi

00100e40 <filestat>:
}

// Get metadata about file f.
int
filestat(struct file *f, struct stat *st)
{
  100e40:	55                   	push   %ebp
  if(f->type == FD_INODE){
  100e41:	b8 ff ff ff ff       	mov    $0xffffffff,%eax
}

// Get metadata about file f.
int
filestat(struct file *f, struct stat *st)
{
  100e46:	89 e5                	mov    %esp,%ebp
  100e48:	53                   	push   %ebx
  100e49:	83 ec 14             	sub    $0x14,%esp
  100e4c:	8b 5d 08             	mov    0x8(%ebp),%ebx
  if(f->type == FD_INODE){
  100e4f:	83 3b 02             	cmpl   $0x2,(%ebx)
  100e52:	74 0c                	je     100e60 <filestat+0x20>
    stati(f->ip, st);
    iunlock(f->ip);
    return 0;
  }
  return -1;
}
  100e54:	83 c4 14             	add    $0x14,%esp
  100e57:	5b                   	pop    %ebx
  100e58:	5d                   	pop    %ebp
  100e59:	c3                   	ret    
  100e5a:	8d b6 00 00 00 00    	lea    0x0(%esi),%esi
// Get metadata about file f.
int
filestat(struct file *f, struct stat *st)
{
  if(f->type == FD_INODE){
    ilock(f->ip);
  100e60:	8b 43 10             	mov    0x10(%ebx),%eax
  100e63:	89 04 24             	mov    %eax,(%esp)
  100e66:	e8 25 0d 00 00       	call   101b90 <ilock>
    stati(f->ip, st);
  100e6b:	8b 45 0c             	mov    0xc(%ebp),%eax
  100e6e:	89 44 24 04          	mov    %eax,0x4(%esp)
  100e72:	8b 43 10             	mov    0x10(%ebx),%eax
  100e75:	89 04 24             	mov    %eax,(%esp)
  100e78:	e8 e3 01 00 00       	call   101060 <stati>
    iunlock(f->ip);
  100e7d:	8b 43 10             	mov    0x10(%ebx),%eax
  100e80:	89 04 24             	mov    %eax,(%esp)
  100e83:	e8 c8 08 00 00       	call   101750 <iunlock>
    return 0;
  }
  return -1;
}
  100e88:	83 c4 14             	add    $0x14,%esp
filestat(struct file *f, struct stat *st)
{
  if(f->type == FD_INODE){
    ilock(f->ip);
    stati(f->ip, st);
    iunlock(f->ip);
  100e8b:	31 c0                	xor    %eax,%eax
    return 0;
  }
  return -1;
}
  100e8d:	5b                   	pop    %ebx
  100e8e:	5d                   	pop    %ebp
  100e8f:	c3                   	ret    

00100e90 <filedup>:
}

// Increment ref count for file f.
struct file*
filedup(struct file *f)
{
  100e90:	55                   	push   %ebp
  100e91:	89 e5                	mov    %esp,%ebp
  100e93:	53                   	push   %ebx
  100e94:	83 ec 14             	sub    $0x14,%esp
  100e97:	8b 5d 08             	mov    0x8(%ebp),%ebx
  acquire(&ftable.lock);
  100e9a:	c7 04 24 60 90 10 00 	movl   $0x109060,(%esp)
  100ea1:	e8 7a 2c 00 00       	call   103b20 <acquire>
  if(f->ref < 1)
  100ea6:	8b 43 04             	mov    0x4(%ebx),%eax
  100ea9:	85 c0                	test   %eax,%eax
  100eab:	7e 1a                	jle    100ec7 <filedup+0x37>
    panic("filedup");
  f->ref++;
  100ead:	83 c0 01             	add    $0x1,%eax
  100eb0:	89 43 04             	mov    %eax,0x4(%ebx)
  release(&ftable.lock);
  100eb3:	c7 04 24 60 90 10 00 	movl   $0x109060,(%esp)
  100eba:	e8 11 2c 00 00       	call   103ad0 <release>
  return f;
}
  100ebf:	89 d8                	mov    %ebx,%eax
  100ec1:	83 c4 14             	add    $0x14,%esp
  100ec4:	5b                   	pop    %ebx
  100ec5:	5d                   	pop    %ebp
  100ec6:	c3                   	ret    
struct file*
filedup(struct file *f)
{
  acquire(&ftable.lock);
  if(f->ref < 1)
    panic("filedup");
  100ec7:	c7 04 24 12 65 10 00 	movl   $0x106512,(%esp)
  100ece:	e8 dd f9 ff ff       	call   1008b0 <panic>
  100ed3:	8d b6 00 00 00 00    	lea    0x0(%esi),%esi
  100ed9:	8d bc 27 00 00 00 00 	lea    0x0(%edi,%eiz,1),%edi

00100ee0 <filealloc>:
}

// Allocate a file structure.
struct file*
filealloc(void)
{
  100ee0:	55                   	push   %ebp
  100ee1:	89 e5                	mov    %esp,%ebp
  100ee3:	53                   	push   %ebx
  initlock(&ftable.lock, "ftable");
}

// Allocate a file structure.
struct file*
filealloc(void)
  100ee4:	bb ac 90 10 00       	mov    $0x1090ac,%ebx
{
  100ee9:	83 ec 14             	sub    $0x14,%esp
  struct file *f;

  acquire(&ftable.lock);
  100eec:	c7 04 24 60 90 10 00 	movl   $0x109060,(%esp)
  100ef3:	e8 28 2c 00 00       	call   103b20 <acquire>
  for(f = ftable.file; f < ftable.file + NFILE; f++){
    if(f->ref == 0){
  100ef8:	8b 15 98 90 10 00    	mov    0x109098,%edx
  100efe:	85 d2                	test   %edx,%edx
  100f00:	75 11                	jne    100f13 <filealloc+0x33>
  100f02:	eb 4a                	jmp    100f4e <filealloc+0x6e>
  100f04:	8d 74 26 00          	lea    0x0(%esi,%eiz,1),%esi
filealloc(void)
{
  struct file *f;

  acquire(&ftable.lock);
  for(f = ftable.file; f < ftable.file + NFILE; f++){
  100f08:	83 c3 18             	add    $0x18,%ebx
  100f0b:	81 fb f4 99 10 00    	cmp    $0x1099f4,%ebx
  100f11:	74 25                	je     100f38 <filealloc+0x58>
    if(f->ref == 0){
  100f13:	8b 43 04             	mov    0x4(%ebx),%eax
  100f16:	85 c0                	test   %eax,%eax
  100f18:	75 ee                	jne    100f08 <filealloc+0x28>
      f->ref = 1;
  100f1a:	c7 43 04 01 00 00 00 	movl   $0x1,0x4(%ebx)
      release(&ftable.lock);
  100f21:	c7 04 24 60 90 10 00 	movl   $0x109060,(%esp)
  100f28:	e8 a3 2b 00 00       	call   103ad0 <release>
      return f;
    }
  }
  release(&ftable.lock);
  return 0;
}
  100f2d:	89 d8                	mov    %ebx,%eax
  100f2f:	83 c4 14             	add    $0x14,%esp
  100f32:	5b                   	pop    %ebx
  100f33:	5d                   	pop    %ebp
  100f34:	c3                   	ret    
  100f35:	8d 76 00             	lea    0x0(%esi),%esi
      f->ref = 1;
      release(&ftable.lock);
      return f;
    }
  }
  release(&ftable.lock);
  100f38:	31 db                	xor    %ebx,%ebx
  100f3a:	c7 04 24 60 90 10 00 	movl   $0x109060,(%esp)
  100f41:	e8 8a 2b 00 00       	call   103ad0 <release>
  return 0;
}
  100f46:	89 d8                	mov    %ebx,%eax
  100f48:	83 c4 14             	add    $0x14,%esp
  100f4b:	5b                   	pop    %ebx
  100f4c:	5d                   	pop    %ebp
  100f4d:	c3                   	ret    
{
  struct file *f;

  acquire(&ftable.lock);
  for(f = ftable.file; f < ftable.file + NFILE; f++){
    if(f->ref == 0){
  100f4e:	bb 94 90 10 00       	mov    $0x109094,%ebx
  100f53:	eb c5                	jmp    100f1a <filealloc+0x3a>
  100f55:	8d 74 26 00          	lea    0x0(%esi,%eiz,1),%esi
  100f59:	8d bc 27 00 00 00 00 	lea    0x0(%edi,%eiz,1),%edi

00100f60 <fileclose>:
}

// Close file f.  (Decrement ref count, close when reaches 0.)
void
fileclose(struct file *f)
{
  100f60:	55                   	push   %ebp
  100f61:	89 e5                	mov    %esp,%ebp
  100f63:	83 ec 38             	sub    $0x38,%esp
  100f66:	89 5d f4             	mov    %ebx,-0xc(%ebp)
  100f69:	8b 5d 08             	mov    0x8(%ebp),%ebx
  100f6c:	89 75 f8             	mov    %esi,-0x8(%ebp)
  100f6f:	89 7d fc             	mov    %edi,-0x4(%ebp)
  struct file ff;

  acquire(&ftable.lock);
  100f72:	c7 04 24 60 90 10 00 	movl   $0x109060,(%esp)
  100f79:	e8 a2 2b 00 00       	call   103b20 <acquire>
  if(f->ref < 1)
  100f7e:	8b 43 04             	mov    0x4(%ebx),%eax
  100f81:	85 c0                	test   %eax,%eax
  100f83:	0f 8e 9c 00 00 00    	jle    101025 <fileclose+0xc5>
    panic("fileclose");
  if(--f->ref > 0){
  100f89:	83 e8 01             	sub    $0x1,%eax
  100f8c:	85 c0                	test   %eax,%eax
  100f8e:	89 43 04             	mov    %eax,0x4(%ebx)
  100f91:	74 1d                	je     100fb0 <fileclose+0x50>
    release(&ftable.lock);
  100f93:	c7 45 08 60 90 10 00 	movl   $0x109060,0x8(%ebp)
  
  if(ff.type == FD_PIPE)
    pipeclose(ff.pipe, ff.writable);
  else if(ff.type == FD_INODE)
    iput(ff.ip);
}
  100f9a:	8b 5d f4             	mov    -0xc(%ebp),%ebx
  100f9d:	8b 75 f8             	mov    -0x8(%ebp),%esi
  100fa0:	8b 7d fc             	mov    -0x4(%ebp),%edi
  100fa3:	89 ec                	mov    %ebp,%esp
  100fa5:	5d                   	pop    %ebp

  acquire(&ftable.lock);
  if(f->ref < 1)
    panic("fileclose");
  if(--f->ref > 0){
    release(&ftable.lock);
  100fa6:	e9 25 2b 00 00       	jmp    103ad0 <release>
  100fab:	90                   	nop
  100fac:	8d 74 26 00          	lea    0x0(%esi,%eiz,1),%esi
    return;
  }
  ff = *f;
  100fb0:	8b 43 0c             	mov    0xc(%ebx),%eax
  100fb3:	8b 7b 10             	mov    0x10(%ebx),%edi
  100fb6:	89 45 e0             	mov    %eax,-0x20(%ebp)
  100fb9:	0f b6 43 09          	movzbl 0x9(%ebx),%eax
  100fbd:	88 45 e7             	mov    %al,-0x19(%ebp)
  100fc0:	8b 33                	mov    (%ebx),%esi
  f->ref = 0;
  100fc2:	c7 43 04 00 00 00 00 	movl   $0x0,0x4(%ebx)
  f->type = FD_NONE;
  100fc9:	c7 03 00 00 00 00    	movl   $0x0,(%ebx)
  release(&ftable.lock);
  100fcf:	c7 04 24 60 90 10 00 	movl   $0x109060,(%esp)
  100fd6:	e8 f5 2a 00 00       	call   103ad0 <release>
  
  if(ff.type == FD_PIPE)
  100fdb:	83 fe 01             	cmp    $0x1,%esi
  100fde:	74 30                	je     101010 <fileclose+0xb0>
    pipeclose(ff.pipe, ff.writable);
  else if(ff.type == FD_INODE)
  100fe0:	83 fe 02             	cmp    $0x2,%esi
  100fe3:	74 13                	je     100ff8 <fileclose+0x98>
    iput(ff.ip);
}
  100fe5:	8b 5d f4             	mov    -0xc(%ebp),%ebx
  100fe8:	8b 75 f8             	mov    -0x8(%ebp),%esi
  100feb:	8b 7d fc             	mov    -0x4(%ebp),%edi
  100fee:	89 ec                	mov    %ebp,%esp
  100ff0:	5d                   	pop    %ebp
  100ff1:	c3                   	ret    
  100ff2:	8d b6 00 00 00 00    	lea    0x0(%esi),%esi
  release(&ftable.lock);
  
  if(ff.type == FD_PIPE)
    pipeclose(ff.pipe, ff.writable);
  else if(ff.type == FD_INODE)
    iput(ff.ip);
  100ff8:	89 7d 08             	mov    %edi,0x8(%ebp)
}
  100ffb:	8b 5d f4             	mov    -0xc(%ebp),%ebx
  100ffe:	8b 75 f8             	mov    -0x8(%ebp),%esi
  101001:	8b 7d fc             	mov    -0x4(%ebp),%edi
  101004:	89 ec                	mov    %ebp,%esp
  101006:	5d                   	pop    %ebp
  release(&ftable.lock);
  
  if(ff.type == FD_PIPE)
    pipeclose(ff.pipe, ff.writable);
  else if(ff.type == FD_INODE)
    iput(ff.ip);
  101007:	e9 54 08 00 00       	jmp    101860 <iput>
  10100c:	8d 74 26 00          	lea    0x0(%esi,%eiz,1),%esi
  f->ref = 0;
  f->type = FD_NONE;
  release(&ftable.lock);
  
  if(ff.type == FD_PIPE)
    pipeclose(ff.pipe, ff.writable);
  101010:	0f be 45 e7          	movsbl -0x19(%ebp),%eax
  101014:	89 44 24 04          	mov    %eax,0x4(%esp)
  101018:	8b 45 e0             	mov    -0x20(%ebp),%eax
  10101b:	89 04 24             	mov    %eax,(%esp)
  10101e:	e8 1d 1e 00 00       	call   102e40 <pipeclose>
  101023:	eb c0                	jmp    100fe5 <fileclose+0x85>
{
  struct file ff;

  acquire(&ftable.lock);
  if(f->ref < 1)
    panic("fileclose");
  101025:	c7 04 24 1a 65 10 00 	movl   $0x10651a,(%esp)
  10102c:	e8 7f f8 ff ff       	call   1008b0 <panic>
  101031:	eb 0d                	jmp    101040 <fileinit>
  101033:	90                   	nop
  101034:	90                   	nop
  101035:	90                   	nop
  101036:	90                   	nop
  101037:	90                   	nop
  101038:	90                   	nop
  101039:	90                   	nop
  10103a:	90                   	nop
  10103b:	90                   	nop
  10103c:	90                   	nop
  10103d:	90                   	nop
  10103e:	90                   	nop
  10103f:	90                   	nop

00101040 <fileinit>:
  struct file file[NFILE];
} ftable;

void
fileinit(void)
{
  101040:	55                   	push   %ebp
  101041:	89 e5                	mov    %esp,%ebp
  101043:	83 ec 18             	sub    $0x18,%esp
  initlock(&ftable.lock, "ftable");
  101046:	c7 44 24 04 24 65 10 	movl   $0x106524,0x4(%esp)
  10104d:	00 
  10104e:	c7 04 24 60 90 10 00 	movl   $0x109060,(%esp)
  101055:	e8 36 29 00 00       	call   103990 <initlock>
}
  10105a:	c9                   	leave  
  10105b:	c3                   	ret    
  10105c:	90                   	nop
  10105d:	90                   	nop
  10105e:	90                   	nop
  10105f:	90                   	nop

00101060 <stati>:
}

// Copy stat information from inode.
void
stati(struct inode *ip, struct stat *st)
{
  101060:	55                   	push   %ebp
  101061:	89 e5                	mov    %esp,%ebp
  101063:	8b 55 08             	mov    0x8(%ebp),%edx
  101066:	8b 45 0c             	mov    0xc(%ebp),%eax
  st->dev = ip->dev;
  101069:	8b 0a                	mov    (%edx),%ecx
  10106b:	89 48 04             	mov    %ecx,0x4(%eax)
  st->ino = ip->inum;
  10106e:	8b 4a 04             	mov    0x4(%edx),%ecx
  101071:	89 48 08             	mov    %ecx,0x8(%eax)
  st->type = ip->type;
  101074:	0f b7 4a 10          	movzwl 0x10(%edx),%ecx
  101078:	66 89 08             	mov    %cx,(%eax)
  st->nlink = ip->nlink;
  10107b:	0f b7 4a 16          	movzwl 0x16(%edx),%ecx
  10107f:	66 89 48 0c          	mov    %cx,0xc(%eax)
  st->size = ip->size;
  101083:	8b 52 18             	mov    0x18(%edx),%edx
  101086:	89 50 10             	mov    %edx,0x10(%eax)
}
  101089:	5d                   	pop    %ebp
  10108a:	c3                   	ret    
  10108b:	90                   	nop
  10108c:	8d 74 26 00          	lea    0x0(%esi,%eiz,1),%esi

00101090 <idup>:

// Increment reference count for ip.
// Returns ip to enable ip = idup(ip1) idiom.
struct inode*
idup(struct inode *ip)
{
  101090:	55                   	push   %ebp
  101091:	89 e5                	mov    %esp,%ebp
  101093:	53                   	push   %ebx
  101094:	83 ec 14             	sub    $0x14,%esp
  101097:	8b 5d 08             	mov    0x8(%ebp),%ebx
  acquire(&icache.lock);
  10109a:	c7 04 24 60 9a 10 00 	movl   $0x109a60,(%esp)
  1010a1:	e8 7a 2a 00 00       	call   103b20 <acquire>
  ip->ref++;
  1010a6:	83 43 08 01          	addl   $0x1,0x8(%ebx)
  release(&icache.lock);
  1010aa:	c7 04 24 60 9a 10 00 	movl   $0x109a60,(%esp)
  1010b1:	e8 1a 2a 00 00       	call   103ad0 <release>
  return ip;
}
  1010b6:	89 d8                	mov    %ebx,%eax
  1010b8:	83 c4 14             	add    $0x14,%esp
  1010bb:	5b                   	pop    %ebx
  1010bc:	5d                   	pop    %ebp
  1010bd:	c3                   	ret    
  1010be:	66 90                	xchg   %ax,%ax

001010c0 <iget>:

// Find the inode with number inum on device dev
// and return the in-memory copy.
static struct inode*
iget(uint dev, uint inum)
{
  1010c0:	55                   	push   %ebp
  1010c1:	89 e5                	mov    %esp,%ebp
  1010c3:	57                   	push   %edi
  1010c4:	89 d7                	mov    %edx,%edi
  1010c6:	56                   	push   %esi
}

// Find the inode with number inum on device dev
// and return the in-memory copy.
static struct inode*
iget(uint dev, uint inum)
  1010c7:	31 f6                	xor    %esi,%esi
{
  1010c9:	53                   	push   %ebx
  1010ca:	89 c3                	mov    %eax,%ebx
  1010cc:	83 ec 2c             	sub    $0x2c,%esp
  struct inode *ip, *empty;

  acquire(&icache.lock);
  1010cf:	c7 04 24 60 9a 10 00 	movl   $0x109a60,(%esp)
  1010d6:	e8 45 2a 00 00       	call   103b20 <acquire>
}

// Find the inode with number inum on device dev
// and return the in-memory copy.
static struct inode*
iget(uint dev, uint inum)
  1010db:	b8 94 9a 10 00       	mov    $0x109a94,%eax
  1010e0:	eb 14                	jmp    1010f6 <iget+0x36>
  1010e2:	8d b6 00 00 00 00    	lea    0x0(%esi),%esi
    if(ip->ref > 0 && ip->dev == dev && ip->inum == inum){
      ip->ref++;
      release(&icache.lock);
      return ip;
    }
    if(empty == 0 && ip->ref == 0)    // Remember empty slot.
  1010e8:	85 f6                	test   %esi,%esi
  1010ea:	74 3c                	je     101128 <iget+0x68>

  acquire(&icache.lock);

  // Try for cached inode.
  empty = 0;
  for(ip = &icache.inode[0]; ip < &icache.inode[NINODE]; ip++){
  1010ec:	83 c0 50             	add    $0x50,%eax
  1010ef:	3d 34 aa 10 00       	cmp    $0x10aa34,%eax
  1010f4:	74 42                	je     101138 <iget+0x78>
    if(ip->ref > 0 && ip->dev == dev && ip->inum == inum){
  1010f6:	8b 48 08             	mov    0x8(%eax),%ecx
  1010f9:	85 c9                	test   %ecx,%ecx
  1010fb:	7e eb                	jle    1010e8 <iget+0x28>
  1010fd:	39 18                	cmp    %ebx,(%eax)
  1010ff:	75 e7                	jne    1010e8 <iget+0x28>
  101101:	39 78 04             	cmp    %edi,0x4(%eax)
  101104:	75 e2                	jne    1010e8 <iget+0x28>
      ip->ref++;
  101106:	83 c1 01             	add    $0x1,%ecx
  101109:	89 48 08             	mov    %ecx,0x8(%eax)
      release(&icache.lock);
  10110c:	c7 04 24 60 9a 10 00 	movl   $0x109a60,(%esp)
  101113:	89 45 e4             	mov    %eax,-0x1c(%ebp)
  101116:	e8 b5 29 00 00       	call   103ad0 <release>
      return ip;
  10111b:	8b 45 e4             	mov    -0x1c(%ebp),%eax
  ip->ref = 1;
  ip->flags = 0;
  release(&icache.lock);

  return ip;
}
  10111e:	83 c4 2c             	add    $0x2c,%esp
  101121:	5b                   	pop    %ebx
  101122:	5e                   	pop    %esi
  101123:	5f                   	pop    %edi
  101124:	5d                   	pop    %ebp
  101125:	c3                   	ret    
  101126:	66 90                	xchg   %ax,%ax
    if(ip->ref > 0 && ip->dev == dev && ip->inum == inum){
      ip->ref++;
      release(&icache.lock);
      return ip;
    }
    if(empty == 0 && ip->ref == 0)    // Remember empty slot.
  101128:	85 c9                	test   %ecx,%ecx
  10112a:	75 c0                	jne    1010ec <iget+0x2c>
  10112c:	89 c6                	mov    %eax,%esi

  acquire(&icache.lock);

  // Try for cached inode.
  empty = 0;
  for(ip = &icache.inode[0]; ip < &icache.inode[NINODE]; ip++){
  10112e:	83 c0 50             	add    $0x50,%eax
  101131:	3d 34 aa 10 00       	cmp    $0x10aa34,%eax
  101136:	75 be                	jne    1010f6 <iget+0x36>
    if(empty == 0 && ip->ref == 0)    // Remember empty slot.
      empty = ip;
  }

  // Allocate fresh inode.
  if(empty == 0)
  101138:	85 f6                	test   %esi,%esi
  10113a:	74 29                	je     101165 <iget+0xa5>
    panic("iget: no inodes");

  ip = empty;
  ip->dev = dev;
  10113c:	89 1e                	mov    %ebx,(%esi)
  ip->inum = inum;
  10113e:	89 7e 04             	mov    %edi,0x4(%esi)
  ip->ref = 1;
  101141:	c7 46 08 01 00 00 00 	movl   $0x1,0x8(%esi)
  ip->flags = 0;
  101148:	c7 46 0c 00 00 00 00 	movl   $0x0,0xc(%esi)
  release(&icache.lock);
  10114f:	c7 04 24 60 9a 10 00 	movl   $0x109a60,(%esp)
  101156:	e8 75 29 00 00       	call   103ad0 <release>

  return ip;
}
  10115b:	83 c4 2c             	add    $0x2c,%esp
  ip = empty;
  ip->dev = dev;
  ip->inum = inum;
  ip->ref = 1;
  ip->flags = 0;
  release(&icache.lock);
  10115e:	89 f0                	mov    %esi,%eax

  return ip;
}
  101160:	5b                   	pop    %ebx
  101161:	5e                   	pop    %esi
  101162:	5f                   	pop    %edi
  101163:	5d                   	pop    %ebp
  101164:	c3                   	ret    
      empty = ip;
  }

  // Allocate fresh inode.
  if(empty == 0)
    panic("iget: no inodes");
  101165:	c7 04 24 2b 65 10 00 	movl   $0x10652b,(%esp)
  10116c:	e8 3f f7 ff ff       	call   1008b0 <panic>
  101171:	eb 0d                	jmp    101180 <readsb>
  101173:	90                   	nop
  101174:	90                   	nop
  101175:	90                   	nop
  101176:	90                   	nop
  101177:	90                   	nop
  101178:	90                   	nop
  101179:	90                   	nop
  10117a:	90                   	nop
  10117b:	90                   	nop
  10117c:	90                   	nop
  10117d:	90                   	nop
  10117e:	90                   	nop
  10117f:	90                   	nop

00101180 <readsb>:
static void itrunc(struct inode*);

// Read the super block.
static void
readsb(int dev, struct superblock *sb)
{
  101180:	55                   	push   %ebp
  101181:	89 e5                	mov    %esp,%ebp
  101183:	83 ec 18             	sub    $0x18,%esp
  struct buf *bp;
  
  bp = bread(dev, 1);
  101186:	c7 44 24 04 01 00 00 	movl   $0x1,0x4(%esp)
  10118d:	00 
static void itrunc(struct inode*);

// Read the super block.
static void
readsb(int dev, struct superblock *sb)
{
  10118e:	89 5d f8             	mov    %ebx,-0x8(%ebp)
  101191:	89 75 fc             	mov    %esi,-0x4(%ebp)
  101194:	89 d6                	mov    %edx,%esi
  struct buf *bp;
  
  bp = bread(dev, 1);
  101196:	89 04 24             	mov    %eax,(%esp)
  101199:	e8 12 ef ff ff       	call   1000b0 <bread>
  memmove(sb, bp->data, sizeof(*sb));
  10119e:	89 34 24             	mov    %esi,(%esp)
  1011a1:	c7 44 24 08 0c 00 00 	movl   $0xc,0x8(%esp)
  1011a8:	00 
static void
readsb(int dev, struct superblock *sb)
{
  struct buf *bp;
  
  bp = bread(dev, 1);
  1011a9:	89 c3                	mov    %eax,%ebx
  memmove(sb, bp->data, sizeof(*sb));
  1011ab:	8d 40 18             	lea    0x18(%eax),%eax
  1011ae:	89 44 24 04          	mov    %eax,0x4(%esp)
  1011b2:	e8 89 2a 00 00       	call   103c40 <memmove>
  brelse(bp);
  1011b7:	89 1c 24             	mov    %ebx,(%esp)
  1011ba:	e8 41 ee ff ff       	call   100000 <brelse>
}
  1011bf:	8b 5d f8             	mov    -0x8(%ebp),%ebx
  1011c2:	8b 75 fc             	mov    -0x4(%ebp),%esi
  1011c5:	89 ec                	mov    %ebp,%esp
  1011c7:	5d                   	pop    %ebp
  1011c8:	c3                   	ret    
  1011c9:	8d b4 26 00 00 00 00 	lea    0x0(%esi,%eiz,1),%esi

001011d0 <balloc>:
// Blocks. 

// Allocate a disk block.
static uint
balloc(uint dev)
{
  1011d0:	55                   	push   %ebp
  1011d1:	89 e5                	mov    %esp,%ebp
  1011d3:	57                   	push   %edi
  1011d4:	56                   	push   %esi
  1011d5:	53                   	push   %ebx
  1011d6:	83 ec 3c             	sub    $0x3c,%esp
  int b, bi, m;
  struct buf *bp;
  struct superblock sb;

  bp = 0;
  readsb(dev, &sb);
  1011d9:	8d 55 dc             	lea    -0x24(%ebp),%edx
// Blocks. 

// Allocate a disk block.
static uint
balloc(uint dev)
{
  1011dc:	89 45 d0             	mov    %eax,-0x30(%ebp)
  int b, bi, m;
  struct buf *bp;
  struct superblock sb;

  bp = 0;
  readsb(dev, &sb);
  1011df:	e8 9c ff ff ff       	call   101180 <readsb>
  for(b = 0; b < sb.size; b += BPB){
  1011e4:	8b 45 dc             	mov    -0x24(%ebp),%eax
  1011e7:	85 c0                	test   %eax,%eax
  1011e9:	0f 84 9c 00 00 00    	je     10128b <balloc+0xbb>
  1011ef:	c7 45 d4 00 00 00 00 	movl   $0x0,-0x2c(%ebp)
    bp = bread(dev, BBLOCK(b, sb.ninodes));
  1011f6:	8b 45 e4             	mov    -0x1c(%ebp),%eax
  1011f9:	31 db                	xor    %ebx,%ebx
  1011fb:	8b 55 d4             	mov    -0x2c(%ebp),%edx
  1011fe:	c1 e8 03             	shr    $0x3,%eax
  101201:	c1 fa 0c             	sar    $0xc,%edx
  101204:	8d 44 10 03          	lea    0x3(%eax,%edx,1),%eax
  101208:	89 44 24 04          	mov    %eax,0x4(%esp)
  10120c:	8b 45 d0             	mov    -0x30(%ebp),%eax
  10120f:	89 04 24             	mov    %eax,(%esp)
  101212:	e8 99 ee ff ff       	call   1000b0 <bread>
  101217:	89 c6                	mov    %eax,%esi
  101219:	eb 10                	jmp    10122b <balloc+0x5b>
  10121b:	90                   	nop
  10121c:	8d 74 26 00          	lea    0x0(%esi,%eiz,1),%esi
    for(bi = 0; bi < BPB; bi++){
  101220:	83 c3 01             	add    $0x1,%ebx
  101223:	81 fb 00 10 00 00    	cmp    $0x1000,%ebx
  101229:	74 45                	je     101270 <balloc+0xa0>
      m = 1 << (bi % 8);
  10122b:	89 d9                	mov    %ebx,%ecx
  10122d:	ba 01 00 00 00       	mov    $0x1,%edx
  101232:	83 e1 07             	and    $0x7,%ecx
      if((bp->data[bi/8] & m) == 0){  // Is block free?
  101235:	89 d8                	mov    %ebx,%eax
  bp = 0;
  readsb(dev, &sb);
  for(b = 0; b < sb.size; b += BPB){
    bp = bread(dev, BBLOCK(b, sb.ninodes));
    for(bi = 0; bi < BPB; bi++){
      m = 1 << (bi % 8);
  101237:	d3 e2                	shl    %cl,%edx
      if((bp->data[bi/8] & m) == 0){  // Is block free?
  101239:	c1 f8 03             	sar    $0x3,%eax
  bp = 0;
  readsb(dev, &sb);
  for(b = 0; b < sb.size; b += BPB){
    bp = bread(dev, BBLOCK(b, sb.ninodes));
    for(bi = 0; bi < BPB; bi++){
      m = 1 << (bi % 8);
  10123c:	89 d1                	mov    %edx,%ecx
      if((bp->data[bi/8] & m) == 0){  // Is block free?
  10123e:	0f b6 54 06 18       	movzbl 0x18(%esi,%eax,1),%edx
  101243:	0f b6 fa             	movzbl %dl,%edi
  101246:	85 cf                	test   %ecx,%edi
  101248:	75 d6                	jne    101220 <balloc+0x50>
        bp->data[bi/8] |= m;  // Mark block in use on disk.
  10124a:	09 d1                	or     %edx,%ecx
  10124c:	88 4c 06 18          	mov    %cl,0x18(%esi,%eax,1)
        bwrite(bp);
  101250:	89 34 24             	mov    %esi,(%esp)
  101253:	e8 28 ee ff ff       	call   100080 <bwrite>
        brelse(bp);
  101258:	89 34 24             	mov    %esi,(%esp)
  10125b:	e8 a0 ed ff ff       	call   100000 <brelse>
  101260:	8b 55 d4             	mov    -0x2c(%ebp),%edx
      }
    }
    brelse(bp);
  }
  panic("balloc: out of blocks");
}
  101263:	83 c4 3c             	add    $0x3c,%esp
    for(bi = 0; bi < BPB; bi++){
      m = 1 << (bi % 8);
      if((bp->data[bi/8] & m) == 0){  // Is block free?
        bp->data[bi/8] |= m;  // Mark block in use on disk.
        bwrite(bp);
        brelse(bp);
  101266:	8d 04 13             	lea    (%ebx,%edx,1),%eax
      }
    }
    brelse(bp);
  }
  panic("balloc: out of blocks");
}
  101269:	5b                   	pop    %ebx
  10126a:	5e                   	pop    %esi
  10126b:	5f                   	pop    %edi
  10126c:	5d                   	pop    %ebp
  10126d:	c3                   	ret    
  10126e:	66 90                	xchg   %ax,%ax
        bwrite(bp);
        brelse(bp);
        return b + bi;
      }
    }
    brelse(bp);
  101270:	89 34 24             	mov    %esi,(%esp)
  101273:	e8 88 ed ff ff       	call   100000 <brelse>
  struct buf *bp;
  struct superblock sb;

  bp = 0;
  readsb(dev, &sb);
  for(b = 0; b < sb.size; b += BPB){
  101278:	81 45 d4 00 10 00 00 	addl   $0x1000,-0x2c(%ebp)
  10127f:	8b 45 d4             	mov    -0x2c(%ebp),%eax
  101282:	39 45 dc             	cmp    %eax,-0x24(%ebp)
  101285:	0f 87 6b ff ff ff    	ja     1011f6 <balloc+0x26>
        return b + bi;
      }
    }
    brelse(bp);
  }
  panic("balloc: out of blocks");
  10128b:	c7 04 24 3b 65 10 00 	movl   $0x10653b,(%esp)
  101292:	e8 19 f6 ff ff       	call   1008b0 <panic>
  101297:	89 f6                	mov    %esi,%esi
  101299:	8d bc 27 00 00 00 00 	lea    0x0(%edi,%eiz,1),%edi

001012a0 <bmap>:

// Return the disk block address of the nth block in inode ip.
// If there is no such block, bmap allocates one.
static uint
bmap(struct inode *ip, uint bn)
{
  1012a0:	55                   	push   %ebp
  1012a1:	89 e5                	mov    %esp,%ebp
  1012a3:	83 ec 38             	sub    $0x38,%esp
  uint addr, *a;
  struct buf *bp;

  if(bn < NDIRECT){
  1012a6:	83 fa 0b             	cmp    $0xb,%edx

// Return the disk block address of the nth block in inode ip.
// If there is no such block, bmap allocates one.
static uint
bmap(struct inode *ip, uint bn)
{
  1012a9:	89 5d f4             	mov    %ebx,-0xc(%ebp)
  1012ac:	89 c3                	mov    %eax,%ebx
  1012ae:	89 75 f8             	mov    %esi,-0x8(%ebp)
  1012b1:	89 7d fc             	mov    %edi,-0x4(%ebp)
  uint addr, *a;
  struct buf *bp;

  if(bn < NDIRECT){
  1012b4:	77 1a                	ja     1012d0 <bmap+0x30>
    if((addr = ip->addrs[bn]) == 0)
  1012b6:	8d 7a 04             	lea    0x4(%edx),%edi
  1012b9:	8b 44 b8 0c          	mov    0xc(%eax,%edi,4),%eax
  1012bd:	85 c0                	test   %eax,%eax
  1012bf:	74 5f                	je     101320 <bmap+0x80>
    brelse(bp);
    return addr;
  }

  panic("bmap: out of range");
}
  1012c1:	8b 5d f4             	mov    -0xc(%ebp),%ebx
  1012c4:	8b 75 f8             	mov    -0x8(%ebp),%esi
  1012c7:	8b 7d fc             	mov    -0x4(%ebp),%edi
  1012ca:	89 ec                	mov    %ebp,%esp
  1012cc:	5d                   	pop    %ebp
  1012cd:	c3                   	ret    
  1012ce:	66 90                	xchg   %ax,%ax
  if(bn < NDIRECT){
    if((addr = ip->addrs[bn]) == 0)
      ip->addrs[bn] = addr = balloc(ip->dev);
    return addr;
  }
  bn -= NDIRECT;
  1012d0:	8d 7a f4             	lea    -0xc(%edx),%edi

  if(bn < NINDIRECT){
  1012d3:	83 ff 7f             	cmp    $0x7f,%edi
  1012d6:	77 64                	ja     10133c <bmap+0x9c>
    // Load indirect block, allocating if necessary.
    if((addr = ip->addrs[NDIRECT]) == 0)
  1012d8:	8b 40 4c             	mov    0x4c(%eax),%eax
  1012db:	85 c0                	test   %eax,%eax
  1012dd:	74 51                	je     101330 <bmap+0x90>
      ip->addrs[NDIRECT] = addr = balloc(ip->dev);
    bp = bread(ip->dev, addr);
  1012df:	89 44 24 04          	mov    %eax,0x4(%esp)
  1012e3:	8b 03                	mov    (%ebx),%eax
  1012e5:	89 04 24             	mov    %eax,(%esp)
  1012e8:	e8 c3 ed ff ff       	call   1000b0 <bread>
    a = (uint*)bp->data;
    if((addr = a[bn]) == 0){
  1012ed:	8d 7c b8 18          	lea    0x18(%eax,%edi,4),%edi

  if(bn < NINDIRECT){
    // Load indirect block, allocating if necessary.
    if((addr = ip->addrs[NDIRECT]) == 0)
      ip->addrs[NDIRECT] = addr = balloc(ip->dev);
    bp = bread(ip->dev, addr);
  1012f1:	89 c6                	mov    %eax,%esi
    a = (uint*)bp->data;
    if((addr = a[bn]) == 0){
  1012f3:	8b 07                	mov    (%edi),%eax
  1012f5:	85 c0                	test   %eax,%eax
  1012f7:	75 17                	jne    101310 <bmap+0x70>
      a[bn] = addr = balloc(ip->dev);
  1012f9:	8b 03                	mov    (%ebx),%eax
  1012fb:	e8 d0 fe ff ff       	call   1011d0 <balloc>
  101300:	89 07                	mov    %eax,(%edi)
      bwrite(bp);
  101302:	89 45 e4             	mov    %eax,-0x1c(%ebp)
  101305:	89 34 24             	mov    %esi,(%esp)
  101308:	e8 73 ed ff ff       	call   100080 <bwrite>
  10130d:	8b 45 e4             	mov    -0x1c(%ebp),%eax
    }
    brelse(bp);
  101310:	89 45 e4             	mov    %eax,-0x1c(%ebp)
  101313:	89 34 24             	mov    %esi,(%esp)
  101316:	e8 e5 ec ff ff       	call   100000 <brelse>
    return addr;
  10131b:	8b 45 e4             	mov    -0x1c(%ebp),%eax
  10131e:	eb a1                	jmp    1012c1 <bmap+0x21>
  uint addr, *a;
  struct buf *bp;

  if(bn < NDIRECT){
    if((addr = ip->addrs[bn]) == 0)
      ip->addrs[bn] = addr = balloc(ip->dev);
  101320:	8b 03                	mov    (%ebx),%eax
  101322:	e8 a9 fe ff ff       	call   1011d0 <balloc>
  101327:	89 44 bb 0c          	mov    %eax,0xc(%ebx,%edi,4)
  10132b:	eb 94                	jmp    1012c1 <bmap+0x21>
  10132d:	8d 76 00             	lea    0x0(%esi),%esi
  bn -= NDIRECT;

  if(bn < NINDIRECT){
    // Load indirect block, allocating if necessary.
    if((addr = ip->addrs[NDIRECT]) == 0)
      ip->addrs[NDIRECT] = addr = balloc(ip->dev);
  101330:	8b 03                	mov    (%ebx),%eax
  101332:	e8 99 fe ff ff       	call   1011d0 <balloc>
  101337:	89 43 4c             	mov    %eax,0x4c(%ebx)
  10133a:	eb a3                	jmp    1012df <bmap+0x3f>
    }
    brelse(bp);
    return addr;
  }

  panic("bmap: out of range");
  10133c:	c7 04 24 51 65 10 00 	movl   $0x106551,(%esp)
  101343:	e8 68 f5 ff ff       	call   1008b0 <panic>
  101348:	90                   	nop
  101349:	8d b4 26 00 00 00 00 	lea    0x0(%esi,%eiz,1),%esi

00101350 <readi>:
}

// Read data from inode.
int
readi(struct inode *ip, char *dst, uint off, uint n)
{
  101350:	55                   	push   %ebp
  101351:	89 e5                	mov    %esp,%ebp
  101353:	83 ec 38             	sub    $0x38,%esp
  101356:	89 5d f4             	mov    %ebx,-0xc(%ebp)
  101359:	8b 5d 08             	mov    0x8(%ebp),%ebx
  10135c:	89 75 f8             	mov    %esi,-0x8(%ebp)
  10135f:	8b 4d 14             	mov    0x14(%ebp),%ecx
  101362:	89 7d fc             	mov    %edi,-0x4(%ebp)
  101365:	8b 75 10             	mov    0x10(%ebp),%esi
  101368:	8b 7d 0c             	mov    0xc(%ebp),%edi
  uint tot, m;
  struct buf *bp;

  if(ip->type == T_DEV){
  10136b:	66 83 7b 10 03       	cmpw   $0x3,0x10(%ebx)
  101370:	74 1e                	je     101390 <readi+0x40>
    if(ip->major < 0 || ip->major >= NDEV || !devsw[ip->major].read)
      return -1;
    return devsw[ip->major].read(ip, dst, n);
  }

  if(off > ip->size || off + n < off)
  101372:	8b 43 18             	mov    0x18(%ebx),%eax
  101375:	39 f0                	cmp    %esi,%eax
  101377:	73 3f                	jae    1013b8 <readi+0x68>
    bp = bread(ip->dev, bmap(ip, off/BSIZE));
    m = min(n - tot, BSIZE - off%BSIZE);
    memmove(dst, bp->data + off%BSIZE, m);
    brelse(bp);
  }
  return n;
  101379:	b8 ff ff ff ff       	mov    $0xffffffff,%eax
}
  10137e:	8b 5d f4             	mov    -0xc(%ebp),%ebx
  101381:	8b 75 f8             	mov    -0x8(%ebp),%esi
  101384:	8b 7d fc             	mov    -0x4(%ebp),%edi
  101387:	89 ec                	mov    %ebp,%esp
  101389:	5d                   	pop    %ebp
  10138a:	c3                   	ret    
  10138b:	90                   	nop
  10138c:	8d 74 26 00          	lea    0x0(%esi,%eiz,1),%esi
{
  uint tot, m;
  struct buf *bp;

  if(ip->type == T_DEV){
    if(ip->major < 0 || ip->major >= NDEV || !devsw[ip->major].read)
  101390:	0f b7 43 12          	movzwl 0x12(%ebx),%eax
  101394:	66 83 f8 09          	cmp    $0x9,%ax
  101398:	77 df                	ja     101379 <readi+0x29>
  10139a:	98                   	cwtl   
  10139b:	8b 04 c5 00 9a 10 00 	mov    0x109a00(,%eax,8),%eax
  1013a2:	85 c0                	test   %eax,%eax
  1013a4:	74 d3                	je     101379 <readi+0x29>
      return -1;
    return devsw[ip->major].read(ip, dst, n);
  1013a6:	89 4d 10             	mov    %ecx,0x10(%ebp)
    m = min(n - tot, BSIZE - off%BSIZE);
    memmove(dst, bp->data + off%BSIZE, m);
    brelse(bp);
  }
  return n;
}
  1013a9:	8b 5d f4             	mov    -0xc(%ebp),%ebx
  1013ac:	8b 75 f8             	mov    -0x8(%ebp),%esi
  1013af:	8b 7d fc             	mov    -0x4(%ebp),%edi
  1013b2:	89 ec                	mov    %ebp,%esp
  1013b4:	5d                   	pop    %ebp
  struct buf *bp;

  if(ip->type == T_DEV){
    if(ip->major < 0 || ip->major >= NDEV || !devsw[ip->major].read)
      return -1;
    return devsw[ip->major].read(ip, dst, n);
  1013b5:	ff e0                	jmp    *%eax
  1013b7:	90                   	nop
  }

  if(off > ip->size || off + n < off)
  1013b8:	89 ca                	mov    %ecx,%edx
  1013ba:	01 f2                	add    %esi,%edx
  1013bc:	72 bb                	jb     101379 <readi+0x29>
    return -1;
  if(off + n > ip->size)
  1013be:	39 d0                	cmp    %edx,%eax
  1013c0:	73 04                	jae    1013c6 <readi+0x76>
    n = ip->size - off;
  1013c2:	89 c1                	mov    %eax,%ecx
  1013c4:	29 f1                	sub    %esi,%ecx

  for(tot=0; tot<n; tot+=m, off+=m, dst+=m){
  1013c6:	85 c9                	test   %ecx,%ecx
  1013c8:	74 7c                	je     101446 <readi+0xf6>
  1013ca:	c7 45 e4 00 00 00 00 	movl   $0x0,-0x1c(%ebp)
    bp = bread(ip->dev, bmap(ip, off/BSIZE));
    m = min(n - tot, BSIZE - off%BSIZE);
  1013d1:	89 7d e0             	mov    %edi,-0x20(%ebp)
  1013d4:	89 4d dc             	mov    %ecx,-0x24(%ebp)
  1013d7:	90                   	nop
    return -1;
  if(off + n > ip->size)
    n = ip->size - off;

  for(tot=0; tot<n; tot+=m, off+=m, dst+=m){
    bp = bread(ip->dev, bmap(ip, off/BSIZE));
  1013d8:	89 f2                	mov    %esi,%edx
  1013da:	89 d8                	mov    %ebx,%eax
  1013dc:	c1 ea 09             	shr    $0x9,%edx
    m = min(n - tot, BSIZE - off%BSIZE);
  1013df:	bf 00 02 00 00       	mov    $0x200,%edi
    return -1;
  if(off + n > ip->size)
    n = ip->size - off;

  for(tot=0; tot<n; tot+=m, off+=m, dst+=m){
    bp = bread(ip->dev, bmap(ip, off/BSIZE));
  1013e4:	e8 b7 fe ff ff       	call   1012a0 <bmap>
  1013e9:	89 44 24 04          	mov    %eax,0x4(%esp)
  1013ed:	8b 03                	mov    (%ebx),%eax
  1013ef:	89 04 24             	mov    %eax,(%esp)
  1013f2:	e8 b9 ec ff ff       	call   1000b0 <bread>
    m = min(n - tot, BSIZE - off%BSIZE);
  1013f7:	8b 4d dc             	mov    -0x24(%ebp),%ecx
  1013fa:	2b 4d e4             	sub    -0x1c(%ebp),%ecx
    return -1;
  if(off + n > ip->size)
    n = ip->size - off;

  for(tot=0; tot<n; tot+=m, off+=m, dst+=m){
    bp = bread(ip->dev, bmap(ip, off/BSIZE));
  1013fd:	89 c2                	mov    %eax,%edx
    m = min(n - tot, BSIZE - off%BSIZE);
  1013ff:	89 f0                	mov    %esi,%eax
  101401:	25 ff 01 00 00       	and    $0x1ff,%eax
  101406:	29 c7                	sub    %eax,%edi
  101408:	39 cf                	cmp    %ecx,%edi
  10140a:	76 02                	jbe    10140e <readi+0xbe>
  10140c:	89 cf                	mov    %ecx,%edi
    memmove(dst, bp->data + off%BSIZE, m);
  10140e:	8d 44 02 18          	lea    0x18(%edx,%eax,1),%eax
  if(off > ip->size || off + n < off)
    return -1;
  if(off + n > ip->size)
    n = ip->size - off;

  for(tot=0; tot<n; tot+=m, off+=m, dst+=m){
  101412:	01 fe                	add    %edi,%esi
    bp = bread(ip->dev, bmap(ip, off/BSIZE));
    m = min(n - tot, BSIZE - off%BSIZE);
    memmove(dst, bp->data + off%BSIZE, m);
  101414:	89 7c 24 08          	mov    %edi,0x8(%esp)
  101418:	89 44 24 04          	mov    %eax,0x4(%esp)
  10141c:	8b 45 e0             	mov    -0x20(%ebp),%eax
  10141f:	89 04 24             	mov    %eax,(%esp)
  101422:	89 55 d8             	mov    %edx,-0x28(%ebp)
  101425:	e8 16 28 00 00       	call   103c40 <memmove>
    brelse(bp);
  10142a:	8b 55 d8             	mov    -0x28(%ebp),%edx
  10142d:	89 14 24             	mov    %edx,(%esp)
  101430:	e8 cb eb ff ff       	call   100000 <brelse>
  if(off > ip->size || off + n < off)
    return -1;
  if(off + n > ip->size)
    n = ip->size - off;

  for(tot=0; tot<n; tot+=m, off+=m, dst+=m){
  101435:	01 7d e4             	add    %edi,-0x1c(%ebp)
  101438:	8b 45 e4             	mov    -0x1c(%ebp),%eax
  10143b:	01 7d e0             	add    %edi,-0x20(%ebp)
  10143e:	39 45 dc             	cmp    %eax,-0x24(%ebp)
  101441:	77 95                	ja     1013d8 <readi+0x88>
  101443:	8b 4d dc             	mov    -0x24(%ebp),%ecx
    bp = bread(ip->dev, bmap(ip, off/BSIZE));
    m = min(n - tot, BSIZE - off%BSIZE);
    memmove(dst, bp->data + off%BSIZE, m);
    brelse(bp);
  }
  return n;
  101446:	89 c8                	mov    %ecx,%eax
  101448:	e9 31 ff ff ff       	jmp    10137e <readi+0x2e>
  10144d:	8d 76 00             	lea    0x0(%esi),%esi

00101450 <iupdate>:
}

// Copy inode, which has changed, from memory to disk.
void
iupdate(struct inode *ip)
{
  101450:	55                   	push   %ebp
  101451:	89 e5                	mov    %esp,%ebp
  101453:	56                   	push   %esi
  101454:	53                   	push   %ebx
  101455:	83 ec 10             	sub    $0x10,%esp
  101458:	8b 5d 08             	mov    0x8(%ebp),%ebx
  struct buf *bp;
  struct dinode *dip;

  bp = bread(ip->dev, IBLOCK(ip->inum));
  10145b:	8b 43 04             	mov    0x4(%ebx),%eax
  10145e:	c1 e8 03             	shr    $0x3,%eax
  101461:	83 c0 02             	add    $0x2,%eax
  101464:	89 44 24 04          	mov    %eax,0x4(%esp)
  101468:	8b 03                	mov    (%ebx),%eax
  10146a:	89 04 24             	mov    %eax,(%esp)
  10146d:	e8 3e ec ff ff       	call   1000b0 <bread>
  dip = (struct dinode*)bp->data + ip->inum%IPB;
  dip->type = ip->type;
  101472:	0f b7 53 10          	movzwl 0x10(%ebx),%edx
iupdate(struct inode *ip)
{
  struct buf *bp;
  struct dinode *dip;

  bp = bread(ip->dev, IBLOCK(ip->inum));
  101476:	89 c6                	mov    %eax,%esi
  dip = (struct dinode*)bp->data + ip->inum%IPB;
  101478:	8b 43 04             	mov    0x4(%ebx),%eax
  10147b:	83 e0 07             	and    $0x7,%eax
  10147e:	c1 e0 06             	shl    $0x6,%eax
  101481:	8d 44 06 18          	lea    0x18(%esi,%eax,1),%eax
  dip->type = ip->type;
  101485:	66 89 10             	mov    %dx,(%eax)
  dip->major = ip->major;
  101488:	0f b7 53 12          	movzwl 0x12(%ebx),%edx
  10148c:	66 89 50 02          	mov    %dx,0x2(%eax)
  dip->minor = ip->minor;
  101490:	0f b7 53 14          	movzwl 0x14(%ebx),%edx
  101494:	66 89 50 04          	mov    %dx,0x4(%eax)
  dip->nlink = ip->nlink;
  101498:	0f b7 53 16          	movzwl 0x16(%ebx),%edx
  10149c:	66 89 50 06          	mov    %dx,0x6(%eax)
  dip->size = ip->size;
  1014a0:	8b 53 18             	mov    0x18(%ebx),%edx
  memmove(dip->addrs, ip->addrs, sizeof(ip->addrs));
  1014a3:	83 c3 1c             	add    $0x1c,%ebx
  dip = (struct dinode*)bp->data + ip->inum%IPB;
  dip->type = ip->type;
  dip->major = ip->major;
  dip->minor = ip->minor;
  dip->nlink = ip->nlink;
  dip->size = ip->size;
  1014a6:	89 50 08             	mov    %edx,0x8(%eax)
  memmove(dip->addrs, ip->addrs, sizeof(ip->addrs));
  1014a9:	83 c0 0c             	add    $0xc,%eax
  1014ac:	89 5c 24 04          	mov    %ebx,0x4(%esp)
  1014b0:	c7 44 24 08 34 00 00 	movl   $0x34,0x8(%esp)
  1014b7:	00 
  1014b8:	89 04 24             	mov    %eax,(%esp)
  1014bb:	e8 80 27 00 00       	call   103c40 <memmove>
  bwrite(bp);
  1014c0:	89 34 24             	mov    %esi,(%esp)
  1014c3:	e8 b8 eb ff ff       	call   100080 <bwrite>
  brelse(bp);
  1014c8:	89 75 08             	mov    %esi,0x8(%ebp)
}
  1014cb:	83 c4 10             	add    $0x10,%esp
  1014ce:	5b                   	pop    %ebx
  1014cf:	5e                   	pop    %esi
  1014d0:	5d                   	pop    %ebp
  dip->minor = ip->minor;
  dip->nlink = ip->nlink;
  dip->size = ip->size;
  memmove(dip->addrs, ip->addrs, sizeof(ip->addrs));
  bwrite(bp);
  brelse(bp);
  1014d1:	e9 2a eb ff ff       	jmp    100000 <brelse>
  1014d6:	8d 76 00             	lea    0x0(%esi),%esi
  1014d9:	8d bc 27 00 00 00 00 	lea    0x0(%edi,%eiz,1),%edi

001014e0 <writei>:
}

// Write data to inode.
int
writei(struct inode *ip, char *src, uint off, uint n)
{
  1014e0:	55                   	push   %ebp
  1014e1:	89 e5                	mov    %esp,%ebp
  1014e3:	83 ec 38             	sub    $0x38,%esp
  1014e6:	89 5d f4             	mov    %ebx,-0xc(%ebp)
  1014e9:	8b 5d 08             	mov    0x8(%ebp),%ebx
  1014ec:	89 75 f8             	mov    %esi,-0x8(%ebp)
  1014ef:	8b 4d 14             	mov    0x14(%ebp),%ecx
  1014f2:	89 7d fc             	mov    %edi,-0x4(%ebp)
  1014f5:	8b 75 10             	mov    0x10(%ebp),%esi
  1014f8:	8b 7d 0c             	mov    0xc(%ebp),%edi
  uint tot, m;
  struct buf *bp;

  if(ip->type == T_DEV){
  1014fb:	66 83 7b 10 03       	cmpw   $0x3,0x10(%ebx)
  101500:	74 1e                	je     101520 <writei+0x40>
    if(ip->major < 0 || ip->major >= NDEV || !devsw[ip->major].write)
      return -1;
    return devsw[ip->major].write(ip, src, n);
  }

  if(off > ip->size || off + n < off)
  101502:	39 73 18             	cmp    %esi,0x18(%ebx)
  101505:	73 41                	jae    101548 <writei+0x68>

  if(n > 0 && off > ip->size){
    ip->size = off;
    iupdate(ip);
  }
  return n;
  101507:	b8 ff ff ff ff       	mov    $0xffffffff,%eax
}
  10150c:	8b 5d f4             	mov    -0xc(%ebp),%ebx
  10150f:	8b 75 f8             	mov    -0x8(%ebp),%esi
  101512:	8b 7d fc             	mov    -0x4(%ebp),%edi
  101515:	89 ec                	mov    %ebp,%esp
  101517:	5d                   	pop    %ebp
  101518:	c3                   	ret    
  101519:	8d b4 26 00 00 00 00 	lea    0x0(%esi,%eiz,1),%esi
{
  uint tot, m;
  struct buf *bp;

  if(ip->type == T_DEV){
    if(ip->major < 0 || ip->major >= NDEV || !devsw[ip->major].write)
  101520:	0f b7 43 12          	movzwl 0x12(%ebx),%eax
  101524:	66 83 f8 09          	cmp    $0x9,%ax
  101528:	77 dd                	ja     101507 <writei+0x27>
  10152a:	98                   	cwtl   
  10152b:	8b 04 c5 04 9a 10 00 	mov    0x109a04(,%eax,8),%eax
  101532:	85 c0                	test   %eax,%eax
  101534:	74 d1                	je     101507 <writei+0x27>
      return -1;
    return devsw[ip->major].write(ip, src, n);
  101536:	89 4d 10             	mov    %ecx,0x10(%ebp)
  if(n > 0 && off > ip->size){
    ip->size = off;
    iupdate(ip);
  }
  return n;
}
  101539:	8b 5d f4             	mov    -0xc(%ebp),%ebx
  10153c:	8b 75 f8             	mov    -0x8(%ebp),%esi
  10153f:	8b 7d fc             	mov    -0x4(%ebp),%edi
  101542:	89 ec                	mov    %ebp,%esp
  101544:	5d                   	pop    %ebp
  struct buf *bp;

  if(ip->type == T_DEV){
    if(ip->major < 0 || ip->major >= NDEV || !devsw[ip->major].write)
      return -1;
    return devsw[ip->major].write(ip, src, n);
  101545:	ff e0                	jmp    *%eax
  101547:	90                   	nop
  }

  if(off > ip->size || off + n < off)
  101548:	89 c8                	mov    %ecx,%eax
  10154a:	01 f0                	add    %esi,%eax
  10154c:	72 b9                	jb     101507 <writei+0x27>
    return -1;
  if(off + n > MAXFILE*BSIZE)
  10154e:	3d 00 18 01 00       	cmp    $0x11800,%eax
  101553:	76 07                	jbe    10155c <writei+0x7c>
    n = MAXFILE*BSIZE - off;
  101555:	b9 00 18 01 00       	mov    $0x11800,%ecx
  10155a:	29 f1                	sub    %esi,%ecx

  for(tot=0; tot<n; tot+=m, off+=m, src+=m){
  10155c:	85 c9                	test   %ecx,%ecx
  10155e:	0f 84 92 00 00 00    	je     1015f6 <writei+0x116>
  101564:	c7 45 e4 00 00 00 00 	movl   $0x0,-0x1c(%ebp)
    bp = bread(ip->dev, bmap(ip, off/BSIZE));
    m = min(n - tot, BSIZE - off%BSIZE);
  10156b:	89 7d e0             	mov    %edi,-0x20(%ebp)
  10156e:	89 4d dc             	mov    %ecx,-0x24(%ebp)
  101571:	8d b4 26 00 00 00 00 	lea    0x0(%esi,%eiz,1),%esi
    return -1;
  if(off + n > MAXFILE*BSIZE)
    n = MAXFILE*BSIZE - off;

  for(tot=0; tot<n; tot+=m, off+=m, src+=m){
    bp = bread(ip->dev, bmap(ip, off/BSIZE));
  101578:	89 f2                	mov    %esi,%edx
  10157a:	89 d8                	mov    %ebx,%eax
  10157c:	c1 ea 09             	shr    $0x9,%edx
    m = min(n - tot, BSIZE - off%BSIZE);
  10157f:	bf 00 02 00 00       	mov    $0x200,%edi
    return -1;
  if(off + n > MAXFILE*BSIZE)
    n = MAXFILE*BSIZE - off;

  for(tot=0; tot<n; tot+=m, off+=m, src+=m){
    bp = bread(ip->dev, bmap(ip, off/BSIZE));
  101584:	e8 17 fd ff ff       	call   1012a0 <bmap>
  101589:	89 44 24 04          	mov    %eax,0x4(%esp)
  10158d:	8b 03                	mov    (%ebx),%eax
  10158f:	89 04 24             	mov    %eax,(%esp)
  101592:	e8 19 eb ff ff       	call   1000b0 <bread>
    m = min(n - tot, BSIZE - off%BSIZE);
  101597:	8b 4d dc             	mov    -0x24(%ebp),%ecx
  10159a:	2b 4d e4             	sub    -0x1c(%ebp),%ecx
    return -1;
  if(off + n > MAXFILE*BSIZE)
    n = MAXFILE*BSIZE - off;

  for(tot=0; tot<n; tot+=m, off+=m, src+=m){
    bp = bread(ip->dev, bmap(ip, off/BSIZE));
  10159d:	89 c2                	mov    %eax,%edx
    m = min(n - tot, BSIZE - off%BSIZE);
  10159f:	89 f0                	mov    %esi,%eax
  1015a1:	25 ff 01 00 00       	and    $0x1ff,%eax
  1015a6:	29 c7                	sub    %eax,%edi
  1015a8:	39 cf                	cmp    %ecx,%edi
  1015aa:	76 02                	jbe    1015ae <writei+0xce>
  1015ac:	89 cf                	mov    %ecx,%edi
    memmove(bp->data + off%BSIZE, src, m);
  1015ae:	89 7c 24 08          	mov    %edi,0x8(%esp)
  1015b2:	8b 4d e0             	mov    -0x20(%ebp),%ecx
  1015b5:	8d 44 02 18          	lea    0x18(%edx,%eax,1),%eax
  1015b9:	89 04 24             	mov    %eax,(%esp)
  if(off > ip->size || off + n < off)
    return -1;
  if(off + n > MAXFILE*BSIZE)
    n = MAXFILE*BSIZE - off;

  for(tot=0; tot<n; tot+=m, off+=m, src+=m){
  1015bc:	01 fe                	add    %edi,%esi
    bp = bread(ip->dev, bmap(ip, off/BSIZE));
    m = min(n - tot, BSIZE - off%BSIZE);
    memmove(bp->data + off%BSIZE, src, m);
  1015be:	89 4c 24 04          	mov    %ecx,0x4(%esp)
  1015c2:	89 55 d8             	mov    %edx,-0x28(%ebp)
  1015c5:	e8 76 26 00 00       	call   103c40 <memmove>
    bwrite(bp);
  1015ca:	8b 55 d8             	mov    -0x28(%ebp),%edx
  1015cd:	89 14 24             	mov    %edx,(%esp)
  1015d0:	e8 ab ea ff ff       	call   100080 <bwrite>
    brelse(bp);
  1015d5:	8b 55 d8             	mov    -0x28(%ebp),%edx
  1015d8:	89 14 24             	mov    %edx,(%esp)
  1015db:	e8 20 ea ff ff       	call   100000 <brelse>
  if(off > ip->size || off + n < off)
    return -1;
  if(off + n > MAXFILE*BSIZE)
    n = MAXFILE*BSIZE - off;

  for(tot=0; tot<n; tot+=m, off+=m, src+=m){
  1015e0:	01 7d e4             	add    %edi,-0x1c(%ebp)
  1015e3:	8b 45 e4             	mov    -0x1c(%ebp),%eax
  1015e6:	01 7d e0             	add    %edi,-0x20(%ebp)
  1015e9:	39 45 dc             	cmp    %eax,-0x24(%ebp)
  1015ec:	77 8a                	ja     101578 <writei+0x98>
    memmove(bp->data + off%BSIZE, src, m);
    bwrite(bp);
    brelse(bp);
  }

  if(n > 0 && off > ip->size){
  1015ee:	3b 73 18             	cmp    0x18(%ebx),%esi
  1015f1:	8b 4d dc             	mov    -0x24(%ebp),%ecx
  1015f4:	77 07                	ja     1015fd <writei+0x11d>
    ip->size = off;
    iupdate(ip);
  }
  return n;
  1015f6:	89 c8                	mov    %ecx,%eax
  1015f8:	e9 0f ff ff ff       	jmp    10150c <writei+0x2c>
    bwrite(bp);
    brelse(bp);
  }

  if(n > 0 && off > ip->size){
    ip->size = off;
  1015fd:	89 73 18             	mov    %esi,0x18(%ebx)
    iupdate(ip);
  101600:	89 1c 24             	mov    %ebx,(%esp)
  101603:	89 4d d8             	mov    %ecx,-0x28(%ebp)
  101606:	e8 45 fe ff ff       	call   101450 <iupdate>
  10160b:	8b 4d d8             	mov    -0x28(%ebp),%ecx
  }
  return n;
  10160e:	89 c8                	mov    %ecx,%eax
  101610:	e9 f7 fe ff ff       	jmp    10150c <writei+0x2c>
  101615:	8d 74 26 00          	lea    0x0(%esi,%eiz,1),%esi
  101619:	8d bc 27 00 00 00 00 	lea    0x0(%edi,%eiz,1),%edi

00101620 <namecmp>:

// Directories

int
namecmp(const char *s, const char *t)
{
  101620:	55                   	push   %ebp
  101621:	89 e5                	mov    %esp,%ebp
  101623:	83 ec 18             	sub    $0x18,%esp
  return strncmp(s, t, DIRSIZ);
  101626:	8b 45 0c             	mov    0xc(%ebp),%eax
  101629:	c7 44 24 08 0e 00 00 	movl   $0xe,0x8(%esp)
  101630:	00 
  101631:	89 44 24 04          	mov    %eax,0x4(%esp)
  101635:	8b 45 08             	mov    0x8(%ebp),%eax
  101638:	89 04 24             	mov    %eax,(%esp)
  10163b:	e8 70 26 00 00       	call   103cb0 <strncmp>
}
  101640:	c9                   	leave  
  101641:	c3                   	ret    
  101642:	8d b4 26 00 00 00 00 	lea    0x0(%esi,%eiz,1),%esi
  101649:	8d bc 27 00 00 00 00 	lea    0x0(%edi,%eiz,1),%edi

00101650 <dirlookup>:
// Look for a directory entry in a directory.
// If found, set *poff to byte offset of entry.
// Caller must have already locked dp.
struct inode*
dirlookup(struct inode *dp, char *name, uint *poff)
{
  101650:	55                   	push   %ebp
  101651:	89 e5                	mov    %esp,%ebp
  101653:	57                   	push   %edi
  101654:	56                   	push   %esi
  101655:	53                   	push   %ebx
  101656:	83 ec 3c             	sub    $0x3c,%esp
  101659:	8b 45 08             	mov    0x8(%ebp),%eax
  10165c:	8b 55 10             	mov    0x10(%ebp),%edx
  10165f:	8b 5d 0c             	mov    0xc(%ebp),%ebx
  101662:	89 45 dc             	mov    %eax,-0x24(%ebp)
  101665:	89 55 d4             	mov    %edx,-0x2c(%ebp)
  uint off, inum;
  struct buf *bp;
  struct dirent *de;

  if(dp->type != T_DIR)
  101668:	66 83 78 10 01       	cmpw   $0x1,0x10(%eax)
  10166d:	0f 85 d0 00 00 00    	jne    101743 <dirlookup+0xf3>
    panic("dirlookup not DIR");
  101673:	c7 45 e0 00 00 00 00 	movl   $0x0,-0x20(%ebp)

  for(off = 0; off < dp->size; off += BSIZE){
  10167a:	8b 48 18             	mov    0x18(%eax),%ecx
  10167d:	85 c9                	test   %ecx,%ecx
  10167f:	0f 84 b4 00 00 00    	je     101739 <dirlookup+0xe9>
    bp = bread(dp->dev, bmap(dp, off / BSIZE));
  101685:	8b 55 e0             	mov    -0x20(%ebp),%edx
  101688:	8b 45 dc             	mov    -0x24(%ebp),%eax
  10168b:	c1 ea 09             	shr    $0x9,%edx
  10168e:	e8 0d fc ff ff       	call   1012a0 <bmap>
  101693:	89 44 24 04          	mov    %eax,0x4(%esp)
  101697:	8b 4d dc             	mov    -0x24(%ebp),%ecx
  10169a:	8b 01                	mov    (%ecx),%eax
  10169c:	89 04 24             	mov    %eax,(%esp)
  10169f:	e8 0c ea ff ff       	call   1000b0 <bread>
  1016a4:	89 45 e4             	mov    %eax,-0x1c(%ebp)

// Look for a directory entry in a directory.
// If found, set *poff to byte offset of entry.
// Caller must have already locked dp.
struct inode*
dirlookup(struct inode *dp, char *name, uint *poff)
  1016a7:	8b 7d e4             	mov    -0x1c(%ebp),%edi
  if(dp->type != T_DIR)
    panic("dirlookup not DIR");

  for(off = 0; off < dp->size; off += BSIZE){
    bp = bread(dp->dev, bmap(dp, off / BSIZE));
    for(de = (struct dirent*)bp->data;
  1016aa:	83 c0 18             	add    $0x18,%eax
  1016ad:	89 45 d8             	mov    %eax,-0x28(%ebp)
  1016b0:	89 c6                	mov    %eax,%esi

// Look for a directory entry in a directory.
// If found, set *poff to byte offset of entry.
// Caller must have already locked dp.
struct inode*
dirlookup(struct inode *dp, char *name, uint *poff)
  1016b2:	81 c7 18 02 00 00    	add    $0x218,%edi
  1016b8:	eb 0d                	jmp    1016c7 <dirlookup+0x77>
  1016ba:	8d b6 00 00 00 00    	lea    0x0(%esi),%esi

  for(off = 0; off < dp->size; off += BSIZE){
    bp = bread(dp->dev, bmap(dp, off / BSIZE));
    for(de = (struct dirent*)bp->data;
        de < (struct dirent*)(bp->data + BSIZE);
        de++){
  1016c0:	83 c6 10             	add    $0x10,%esi
  if(dp->type != T_DIR)
    panic("dirlookup not DIR");

  for(off = 0; off < dp->size; off += BSIZE){
    bp = bread(dp->dev, bmap(dp, off / BSIZE));
    for(de = (struct dirent*)bp->data;
  1016c3:	39 fe                	cmp    %edi,%esi
  1016c5:	74 51                	je     101718 <dirlookup+0xc8>
        de < (struct dirent*)(bp->data + BSIZE);
        de++){
      if(de->inum == 0)
  1016c7:	66 83 3e 00          	cmpw   $0x0,(%esi)
  1016cb:	74 f3                	je     1016c0 <dirlookup+0x70>
        continue;
      if(namecmp(name, de->name) == 0){
  1016cd:	8d 46 02             	lea    0x2(%esi),%eax
  1016d0:	89 44 24 04          	mov    %eax,0x4(%esp)
  1016d4:	89 1c 24             	mov    %ebx,(%esp)
  1016d7:	e8 44 ff ff ff       	call   101620 <namecmp>
  1016dc:	85 c0                	test   %eax,%eax
  1016de:	75 e0                	jne    1016c0 <dirlookup+0x70>
        // entry matches path element
        if(poff)
  1016e0:	8b 55 d4             	mov    -0x2c(%ebp),%edx
  1016e3:	85 d2                	test   %edx,%edx
  1016e5:	74 0e                	je     1016f5 <dirlookup+0xa5>
          *poff = off + (uchar*)de - bp->data;
  1016e7:	8b 55 e0             	mov    -0x20(%ebp),%edx
  1016ea:	8b 4d d4             	mov    -0x2c(%ebp),%ecx
  1016ed:	8d 04 16             	lea    (%esi,%edx,1),%eax
  1016f0:	2b 45 d8             	sub    -0x28(%ebp),%eax
  1016f3:	89 01                	mov    %eax,(%ecx)
        inum = de->inum;
        brelse(bp);
  1016f5:	8b 45 e4             	mov    -0x1c(%ebp),%eax
        continue;
      if(namecmp(name, de->name) == 0){
        // entry matches path element
        if(poff)
          *poff = off + (uchar*)de - bp->data;
        inum = de->inum;
  1016f8:	0f b7 1e             	movzwl (%esi),%ebx
        brelse(bp);
  1016fb:	89 04 24             	mov    %eax,(%esp)
  1016fe:	e8 fd e8 ff ff       	call   100000 <brelse>
        return iget(dp->dev, inum);
  101703:	8b 4d dc             	mov    -0x24(%ebp),%ecx
  101706:	89 da                	mov    %ebx,%edx
  101708:	8b 01                	mov    (%ecx),%eax
      }
    }
    brelse(bp);
  }
  return 0;
}
  10170a:	83 c4 3c             	add    $0x3c,%esp
  10170d:	5b                   	pop    %ebx
  10170e:	5e                   	pop    %esi
  10170f:	5f                   	pop    %edi
  101710:	5d                   	pop    %ebp
        // entry matches path element
        if(poff)
          *poff = off + (uchar*)de - bp->data;
        inum = de->inum;
        brelse(bp);
        return iget(dp->dev, inum);
  101711:	e9 aa f9 ff ff       	jmp    1010c0 <iget>
  101716:	66 90                	xchg   %ax,%ax
      }
    }
    brelse(bp);
  101718:	8b 45 e4             	mov    -0x1c(%ebp),%eax
  10171b:	89 04 24             	mov    %eax,(%esp)
  10171e:	e8 dd e8 ff ff       	call   100000 <brelse>
  struct dirent *de;

  if(dp->type != T_DIR)
    panic("dirlookup not DIR");

  for(off = 0; off < dp->size; off += BSIZE){
  101723:	8b 55 dc             	mov    -0x24(%ebp),%edx
  101726:	81 45 e0 00 02 00 00 	addl   $0x200,-0x20(%ebp)
  10172d:	8b 4d e0             	mov    -0x20(%ebp),%ecx
  101730:	39 4a 18             	cmp    %ecx,0x18(%edx)
  101733:	0f 87 4c ff ff ff    	ja     101685 <dirlookup+0x35>
      }
    }
    brelse(bp);
  }
  return 0;
}
  101739:	83 c4 3c             	add    $0x3c,%esp
  10173c:	31 c0                	xor    %eax,%eax
  10173e:	5b                   	pop    %ebx
  10173f:	5e                   	pop    %esi
  101740:	5f                   	pop    %edi
  101741:	5d                   	pop    %ebp
  101742:	c3                   	ret    
  uint off, inum;
  struct buf *bp;
  struct dirent *de;

  if(dp->type != T_DIR)
    panic("dirlookup not DIR");
  101743:	c7 04 24 64 65 10 00 	movl   $0x106564,(%esp)
  10174a:	e8 61 f1 ff ff       	call   1008b0 <panic>
  10174f:	90                   	nop

00101750 <iunlock>:
}

// Unlock the given inode.
void
iunlock(struct inode *ip)
{
  101750:	55                   	push   %ebp
  101751:	89 e5                	mov    %esp,%ebp
  101753:	53                   	push   %ebx
  101754:	83 ec 14             	sub    $0x14,%esp
  101757:	8b 5d 08             	mov    0x8(%ebp),%ebx
  if(ip == 0 || !(ip->flags & I_BUSY) || ip->ref < 1)
  10175a:	85 db                	test   %ebx,%ebx
  10175c:	74 36                	je     101794 <iunlock+0x44>
  10175e:	f6 43 0c 01          	testb  $0x1,0xc(%ebx)
  101762:	74 30                	je     101794 <iunlock+0x44>
  101764:	8b 43 08             	mov    0x8(%ebx),%eax
  101767:	85 c0                	test   %eax,%eax
  101769:	7e 29                	jle    101794 <iunlock+0x44>
    panic("iunlock");

  acquire(&icache.lock);
  10176b:	c7 04 24 60 9a 10 00 	movl   $0x109a60,(%esp)
  101772:	e8 a9 23 00 00       	call   103b20 <acquire>
  ip->flags &= ~I_BUSY;
  101777:	83 63 0c fe          	andl   $0xfffffffe,0xc(%ebx)
  wakeup(ip);
  10177b:	89 1c 24             	mov    %ebx,(%esp)
  10177e:	e8 cd 18 00 00       	call   103050 <wakeup>
  release(&icache.lock);
  101783:	c7 45 08 60 9a 10 00 	movl   $0x109a60,0x8(%ebp)
}
  10178a:	83 c4 14             	add    $0x14,%esp
  10178d:	5b                   	pop    %ebx
  10178e:	5d                   	pop    %ebp
    panic("iunlock");

  acquire(&icache.lock);
  ip->flags &= ~I_BUSY;
  wakeup(ip);
  release(&icache.lock);
  10178f:	e9 3c 23 00 00       	jmp    103ad0 <release>
// Unlock the given inode.
void
iunlock(struct inode *ip)
{
  if(ip == 0 || !(ip->flags & I_BUSY) || ip->ref < 1)
    panic("iunlock");
  101794:	c7 04 24 76 65 10 00 	movl   $0x106576,(%esp)
  10179b:	e8 10 f1 ff ff       	call   1008b0 <panic>

001017a0 <bfree>:
}

// Free a disk block.
static void
bfree(int dev, uint b)
{
  1017a0:	55                   	push   %ebp
  1017a1:	89 e5                	mov    %esp,%ebp
  1017a3:	57                   	push   %edi
  1017a4:	56                   	push   %esi
  1017a5:	89 c6                	mov    %eax,%esi
  1017a7:	53                   	push   %ebx
  1017a8:	89 d3                	mov    %edx,%ebx
  1017aa:	83 ec 2c             	sub    $0x2c,%esp
static void
bzero(int dev, int bno)
{
  struct buf *bp;
  
  bp = bread(dev, bno);
  1017ad:	89 54 24 04          	mov    %edx,0x4(%esp)
  1017b1:	89 04 24             	mov    %eax,(%esp)
  1017b4:	e8 f7 e8 ff ff       	call   1000b0 <bread>
  memset(bp->data, 0, BSIZE);
  1017b9:	c7 44 24 08 00 02 00 	movl   $0x200,0x8(%esp)
  1017c0:	00 
  1017c1:	c7 44 24 04 00 00 00 	movl   $0x0,0x4(%esp)
  1017c8:	00 
static void
bzero(int dev, int bno)
{
  struct buf *bp;
  
  bp = bread(dev, bno);
  1017c9:	89 c7                	mov    %eax,%edi
  memset(bp->data, 0, BSIZE);
  1017cb:	8d 40 18             	lea    0x18(%eax),%eax
  1017ce:	89 04 24             	mov    %eax,(%esp)
  1017d1:	e8 ea 23 00 00       	call   103bc0 <memset>
  bwrite(bp);
  1017d6:	89 3c 24             	mov    %edi,(%esp)
  1017d9:	e8 a2 e8 ff ff       	call   100080 <bwrite>
  brelse(bp);
  1017de:	89 3c 24             	mov    %edi,(%esp)
  1017e1:	e8 1a e8 ff ff       	call   100000 <brelse>
  struct superblock sb;
  int bi, m;

  bzero(dev, b);

  readsb(dev, &sb);
  1017e6:	89 f0                	mov    %esi,%eax
  1017e8:	8d 55 dc             	lea    -0x24(%ebp),%edx
  1017eb:	e8 90 f9 ff ff       	call   101180 <readsb>
  bp = bread(dev, BBLOCK(b, sb.ninodes));
  1017f0:	8b 45 e4             	mov    -0x1c(%ebp),%eax
  1017f3:	89 da                	mov    %ebx,%edx
  1017f5:	c1 ea 0c             	shr    $0xc,%edx
  1017f8:	89 34 24             	mov    %esi,(%esp)
  bi = b % BPB;
  m = 1 << (bi % 8);
  1017fb:	be 01 00 00 00       	mov    $0x1,%esi
  int bi, m;

  bzero(dev, b);

  readsb(dev, &sb);
  bp = bread(dev, BBLOCK(b, sb.ninodes));
  101800:	c1 e8 03             	shr    $0x3,%eax
  101803:	8d 44 10 03          	lea    0x3(%eax,%edx,1),%eax
  101807:	89 44 24 04          	mov    %eax,0x4(%esp)
  10180b:	e8 a0 e8 ff ff       	call   1000b0 <bread>
  bi = b % BPB;
  101810:	89 da                	mov    %ebx,%edx
  m = 1 << (bi % 8);
  101812:	89 d9                	mov    %ebx,%ecx

  bzero(dev, b);

  readsb(dev, &sb);
  bp = bread(dev, BBLOCK(b, sb.ninodes));
  bi = b % BPB;
  101814:	81 e2 ff 0f 00 00    	and    $0xfff,%edx
  m = 1 << (bi % 8);
  10181a:	83 e1 07             	and    $0x7,%ecx
  if((bp->data[bi/8] & m) == 0)
  10181d:	c1 fa 03             	sar    $0x3,%edx
  bzero(dev, b);

  readsb(dev, &sb);
  bp = bread(dev, BBLOCK(b, sb.ninodes));
  bi = b % BPB;
  m = 1 << (bi % 8);
  101820:	d3 e6                	shl    %cl,%esi
  if((bp->data[bi/8] & m) == 0)
  101822:	0f b6 4c 10 18       	movzbl 0x18(%eax,%edx,1),%ecx
  int bi, m;

  bzero(dev, b);

  readsb(dev, &sb);
  bp = bread(dev, BBLOCK(b, sb.ninodes));
  101827:	89 c7                	mov    %eax,%edi
  bi = b % BPB;
  m = 1 << (bi % 8);
  if((bp->data[bi/8] & m) == 0)
  101829:	0f b6 c1             	movzbl %cl,%eax
  10182c:	85 f0                	test   %esi,%eax
  10182e:	74 22                	je     101852 <bfree+0xb2>
    panic("freeing free block");
  bp->data[bi/8] &= ~m;  // Mark block free on disk.
  101830:	89 f0                	mov    %esi,%eax
  101832:	f7 d0                	not    %eax
  101834:	21 c8                	and    %ecx,%eax
  101836:	88 44 17 18          	mov    %al,0x18(%edi,%edx,1)
  bwrite(bp);
  10183a:	89 3c 24             	mov    %edi,(%esp)
  10183d:	e8 3e e8 ff ff       	call   100080 <bwrite>
  brelse(bp);
  101842:	89 3c 24             	mov    %edi,(%esp)
  101845:	e8 b6 e7 ff ff       	call   100000 <brelse>
}
  10184a:	83 c4 2c             	add    $0x2c,%esp
  10184d:	5b                   	pop    %ebx
  10184e:	5e                   	pop    %esi
  10184f:	5f                   	pop    %edi
  101850:	5d                   	pop    %ebp
  101851:	c3                   	ret    
  readsb(dev, &sb);
  bp = bread(dev, BBLOCK(b, sb.ninodes));
  bi = b % BPB;
  m = 1 << (bi % 8);
  if((bp->data[bi/8] & m) == 0)
    panic("freeing free block");
  101852:	c7 04 24 7e 65 10 00 	movl   $0x10657e,(%esp)
  101859:	e8 52 f0 ff ff       	call   1008b0 <panic>
  10185e:	66 90                	xchg   %ax,%ax

00101860 <iput>:
}

// Caller holds reference to unlocked ip.  Drop reference.
void
iput(struct inode *ip)
{
  101860:	55                   	push   %ebp
  101861:	89 e5                	mov    %esp,%ebp
  101863:	57                   	push   %edi
  101864:	56                   	push   %esi
  101865:	53                   	push   %ebx
  101866:	83 ec 2c             	sub    $0x2c,%esp
  101869:	8b 75 08             	mov    0x8(%ebp),%esi
  acquire(&icache.lock);
  10186c:	c7 04 24 60 9a 10 00 	movl   $0x109a60,(%esp)
  101873:	e8 a8 22 00 00       	call   103b20 <acquire>
  if(ip->ref == 1 && (ip->flags & I_VALID) && ip->nlink == 0){
  101878:	8b 46 08             	mov    0x8(%esi),%eax
  10187b:	83 f8 01             	cmp    $0x1,%eax
  10187e:	0f 85 a1 00 00 00    	jne    101925 <iput+0xc5>
  101884:	8b 56 0c             	mov    0xc(%esi),%edx
  101887:	f6 c2 02             	test   $0x2,%dl
  10188a:	0f 84 95 00 00 00    	je     101925 <iput+0xc5>
  101890:	66 83 7e 16 00       	cmpw   $0x0,0x16(%esi)
  101895:	0f 85 8a 00 00 00    	jne    101925 <iput+0xc5>
    // inode is no longer used: truncate and free inode.
    if(ip->flags & I_BUSY)
  10189b:	f6 c2 01             	test   $0x1,%dl
  10189e:	66 90                	xchg   %ax,%ax
  1018a0:	0f 85 f8 00 00 00    	jne    10199e <iput+0x13e>
      panic("iput busy");
    ip->flags |= I_BUSY;
  1018a6:	83 ca 01             	or     $0x1,%edx
    release(&icache.lock);
  1018a9:	89 f3                	mov    %esi,%ebx
  acquire(&icache.lock);
  if(ip->ref == 1 && (ip->flags & I_VALID) && ip->nlink == 0){
    // inode is no longer used: truncate and free inode.
    if(ip->flags & I_BUSY)
      panic("iput busy");
    ip->flags |= I_BUSY;
  1018ab:	89 56 0c             	mov    %edx,0xc(%esi)
  release(&icache.lock);
}

// Caller holds reference to unlocked ip.  Drop reference.
void
iput(struct inode *ip)
  1018ae:	8d 7e 30             	lea    0x30(%esi),%edi
  if(ip->ref == 1 && (ip->flags & I_VALID) && ip->nlink == 0){
    // inode is no longer used: truncate and free inode.
    if(ip->flags & I_BUSY)
      panic("iput busy");
    ip->flags |= I_BUSY;
    release(&icache.lock);
  1018b1:	c7 04 24 60 9a 10 00 	movl   $0x109a60,(%esp)
  1018b8:	e8 13 22 00 00       	call   103ad0 <release>
  1018bd:	eb 08                	jmp    1018c7 <iput+0x67>
  1018bf:	90                   	nop
  uint *a;

  for(i = 0; i < NDIRECT; i++){
    if(ip->addrs[i]){
      bfree(ip->dev, ip->addrs[i]);
      ip->addrs[i] = 0;
  1018c0:	83 c3 04             	add    $0x4,%ebx
{
  int i, j;
  struct buf *bp;
  uint *a;

  for(i = 0; i < NDIRECT; i++){
  1018c3:	39 fb                	cmp    %edi,%ebx
  1018c5:	74 1c                	je     1018e3 <iput+0x83>
    if(ip->addrs[i]){
  1018c7:	8b 53 1c             	mov    0x1c(%ebx),%edx
  1018ca:	85 d2                	test   %edx,%edx
  1018cc:	74 f2                	je     1018c0 <iput+0x60>
      bfree(ip->dev, ip->addrs[i]);
  1018ce:	8b 06                	mov    (%esi),%eax
  1018d0:	e8 cb fe ff ff       	call   1017a0 <bfree>
      ip->addrs[i] = 0;
  1018d5:	c7 43 1c 00 00 00 00 	movl   $0x0,0x1c(%ebx)
  1018dc:	83 c3 04             	add    $0x4,%ebx
{
  int i, j;
  struct buf *bp;
  uint *a;

  for(i = 0; i < NDIRECT; i++){
  1018df:	39 fb                	cmp    %edi,%ebx
  1018e1:	75 e4                	jne    1018c7 <iput+0x67>
      bfree(ip->dev, ip->addrs[i]);
      ip->addrs[i] = 0;
    }
  }
  
  if(ip->addrs[NDIRECT]){
  1018e3:	8b 46 4c             	mov    0x4c(%esi),%eax
  1018e6:	85 c0                	test   %eax,%eax
  1018e8:	75 56                	jne    101940 <iput+0xe0>
    brelse(bp);
    bfree(ip->dev, ip->addrs[NDIRECT]);
    ip->addrs[NDIRECT] = 0;
  }

  ip->size = 0;
  1018ea:	c7 46 18 00 00 00 00 	movl   $0x0,0x18(%esi)
  iupdate(ip);
  1018f1:	89 34 24             	mov    %esi,(%esp)
  1018f4:	e8 57 fb ff ff       	call   101450 <iupdate>
    if(ip->flags & I_BUSY)
      panic("iput busy");
    ip->flags |= I_BUSY;
    release(&icache.lock);
    itrunc(ip);
    ip->type = 0;
  1018f9:	66 c7 46 10 00 00    	movw   $0x0,0x10(%esi)
    iupdate(ip);
  1018ff:	89 34 24             	mov    %esi,(%esp)
  101902:	e8 49 fb ff ff       	call   101450 <iupdate>
    acquire(&icache.lock);
  101907:	c7 04 24 60 9a 10 00 	movl   $0x109a60,(%esp)
  10190e:	e8 0d 22 00 00       	call   103b20 <acquire>
    ip->flags = 0;
  101913:	c7 46 0c 00 00 00 00 	movl   $0x0,0xc(%esi)
    wakeup(ip);
  10191a:	89 34 24             	mov    %esi,(%esp)
  10191d:	e8 2e 17 00 00       	call   103050 <wakeup>
  101922:	8b 46 08             	mov    0x8(%esi),%eax
  }
  ip->ref--;
  101925:	83 e8 01             	sub    $0x1,%eax
  101928:	89 46 08             	mov    %eax,0x8(%esi)
  release(&icache.lock);
  10192b:	c7 45 08 60 9a 10 00 	movl   $0x109a60,0x8(%ebp)
}
  101932:	83 c4 2c             	add    $0x2c,%esp
  101935:	5b                   	pop    %ebx
  101936:	5e                   	pop    %esi
  101937:	5f                   	pop    %edi
  101938:	5d                   	pop    %ebp
    acquire(&icache.lock);
    ip->flags = 0;
    wakeup(ip);
  }
  ip->ref--;
  release(&icache.lock);
  101939:	e9 92 21 00 00       	jmp    103ad0 <release>
  10193e:	66 90                	xchg   %ax,%ax
      ip->addrs[i] = 0;
    }
  }
  
  if(ip->addrs[NDIRECT]){
    bp = bread(ip->dev, ip->addrs[NDIRECT]);
  101940:	89 44 24 04          	mov    %eax,0x4(%esp)
  101944:	8b 06                	mov    (%esi),%eax
    a = (uint*)bp->data;
  101946:	31 db                	xor    %ebx,%ebx
      ip->addrs[i] = 0;
    }
  }
  
  if(ip->addrs[NDIRECT]){
    bp = bread(ip->dev, ip->addrs[NDIRECT]);
  101948:	89 04 24             	mov    %eax,(%esp)
  10194b:	e8 60 e7 ff ff       	call   1000b0 <bread>
    a = (uint*)bp->data;
  101950:	89 c7                	mov    %eax,%edi
      ip->addrs[i] = 0;
    }
  }
  
  if(ip->addrs[NDIRECT]){
    bp = bread(ip->dev, ip->addrs[NDIRECT]);
  101952:	89 45 e4             	mov    %eax,-0x1c(%ebp)
    a = (uint*)bp->data;
  101955:	83 c7 18             	add    $0x18,%edi
  101958:	31 c0                	xor    %eax,%eax
  10195a:	eb 11                	jmp    10196d <iput+0x10d>
  10195c:	8d 74 26 00          	lea    0x0(%esi,%eiz,1),%esi
    for(j = 0; j < NINDIRECT; j++){
  101960:	83 c3 01             	add    $0x1,%ebx
  101963:	81 fb 80 00 00 00    	cmp    $0x80,%ebx
  101969:	89 d8                	mov    %ebx,%eax
  10196b:	74 10                	je     10197d <iput+0x11d>
      if(a[j])
  10196d:	8b 14 87             	mov    (%edi,%eax,4),%edx
  101970:	85 d2                	test   %edx,%edx
  101972:	74 ec                	je     101960 <iput+0x100>
        bfree(ip->dev, a[j]);
  101974:	8b 06                	mov    (%esi),%eax
  101976:	e8 25 fe ff ff       	call   1017a0 <bfree>
  10197b:	eb e3                	jmp    101960 <iput+0x100>
    }
    brelse(bp);
  10197d:	8b 45 e4             	mov    -0x1c(%ebp),%eax
  101980:	89 04 24             	mov    %eax,(%esp)
  101983:	e8 78 e6 ff ff       	call   100000 <brelse>
    bfree(ip->dev, ip->addrs[NDIRECT]);
  101988:	8b 56 4c             	mov    0x4c(%esi),%edx
  10198b:	8b 06                	mov    (%esi),%eax
  10198d:	e8 0e fe ff ff       	call   1017a0 <bfree>
    ip->addrs[NDIRECT] = 0;
  101992:	c7 46 4c 00 00 00 00 	movl   $0x0,0x4c(%esi)
  101999:	e9 4c ff ff ff       	jmp    1018ea <iput+0x8a>
{
  acquire(&icache.lock);
  if(ip->ref == 1 && (ip->flags & I_VALID) && ip->nlink == 0){
    // inode is no longer used: truncate and free inode.
    if(ip->flags & I_BUSY)
      panic("iput busy");
  10199e:	c7 04 24 91 65 10 00 	movl   $0x106591,(%esp)
  1019a5:	e8 06 ef ff ff       	call   1008b0 <panic>
  1019aa:	8d b6 00 00 00 00    	lea    0x0(%esi),%esi

001019b0 <dirlink>:
}

// Write a new directory entry (name, inum) into the directory dp.
int
dirlink(struct inode *dp, char *name, uint inum)
{
  1019b0:	55                   	push   %ebp
  1019b1:	89 e5                	mov    %esp,%ebp
  1019b3:	57                   	push   %edi
  1019b4:	56                   	push   %esi
  1019b5:	53                   	push   %ebx
  1019b6:	83 ec 2c             	sub    $0x2c,%esp
  1019b9:	8b 75 08             	mov    0x8(%ebp),%esi
  int off;
  struct dirent de;
  struct inode *ip;

  // Check that name is not present.
  if((ip = dirlookup(dp, name, 0)) != 0){
  1019bc:	8b 45 0c             	mov    0xc(%ebp),%eax
  1019bf:	c7 44 24 08 00 00 00 	movl   $0x0,0x8(%esp)
  1019c6:	00 
  1019c7:	89 34 24             	mov    %esi,(%esp)
  1019ca:	89 44 24 04          	mov    %eax,0x4(%esp)
  1019ce:	e8 7d fc ff ff       	call   101650 <dirlookup>
  1019d3:	85 c0                	test   %eax,%eax
  1019d5:	0f 85 89 00 00 00    	jne    101a64 <dirlink+0xb4>
    iput(ip);
    return -1;
  }

  // Look for an empty dirent.
  for(off = 0; off < dp->size; off += sizeof(de)){
  1019db:	8b 56 18             	mov    0x18(%esi),%edx
  1019de:	85 d2                	test   %edx,%edx
  1019e0:	0f 84 8d 00 00 00    	je     101a73 <dirlink+0xc3>
  struct inode *ip;

  // Check that name is not present.
  if((ip = dirlookup(dp, name, 0)) != 0){
    iput(ip);
    return -1;
  1019e6:	8d 7d d8             	lea    -0x28(%ebp),%edi
  1019e9:	31 db                	xor    %ebx,%ebx
  1019eb:	eb 0b                	jmp    1019f8 <dirlink+0x48>
  1019ed:	8d 76 00             	lea    0x0(%esi),%esi
  }

  // Look for an empty dirent.
  for(off = 0; off < dp->size; off += sizeof(de)){
  1019f0:	83 c3 10             	add    $0x10,%ebx
  1019f3:	39 5e 18             	cmp    %ebx,0x18(%esi)
  1019f6:	76 24                	jbe    101a1c <dirlink+0x6c>
    if(readi(dp, (char*)&de, off, sizeof(de)) != sizeof(de))
  1019f8:	c7 44 24 0c 10 00 00 	movl   $0x10,0xc(%esp)
  1019ff:	00 
  101a00:	89 5c 24 08          	mov    %ebx,0x8(%esp)
  101a04:	89 7c 24 04          	mov    %edi,0x4(%esp)
  101a08:	89 34 24             	mov    %esi,(%esp)
  101a0b:	e8 40 f9 ff ff       	call   101350 <readi>
  101a10:	83 f8 10             	cmp    $0x10,%eax
  101a13:	75 65                	jne    101a7a <dirlink+0xca>
      panic("dirlink read");
    if(de.inum == 0)
  101a15:	66 83 7d d8 00       	cmpw   $0x0,-0x28(%ebp)
  101a1a:	75 d4                	jne    1019f0 <dirlink+0x40>
      break;
  }

  strncpy(de.name, name, DIRSIZ);
  101a1c:	8b 45 0c             	mov    0xc(%ebp),%eax
  101a1f:	c7 44 24 08 0e 00 00 	movl   $0xe,0x8(%esp)
  101a26:	00 
  101a27:	89 44 24 04          	mov    %eax,0x4(%esp)
  101a2b:	8d 45 da             	lea    -0x26(%ebp),%eax
  101a2e:	89 04 24             	mov    %eax,(%esp)
  101a31:	e8 da 22 00 00       	call   103d10 <strncpy>
  de.inum = inum;
  101a36:	8b 45 10             	mov    0x10(%ebp),%eax
  if(writei(dp, (char*)&de, off, sizeof(de)) != sizeof(de))
  101a39:	c7 44 24 0c 10 00 00 	movl   $0x10,0xc(%esp)
  101a40:	00 
  101a41:	89 5c 24 08          	mov    %ebx,0x8(%esp)
  101a45:	89 7c 24 04          	mov    %edi,0x4(%esp)
    if(de.inum == 0)
      break;
  }

  strncpy(de.name, name, DIRSIZ);
  de.inum = inum;
  101a49:	66 89 45 d8          	mov    %ax,-0x28(%ebp)
  if(writei(dp, (char*)&de, off, sizeof(de)) != sizeof(de))
  101a4d:	89 34 24             	mov    %esi,(%esp)
  101a50:	e8 8b fa ff ff       	call   1014e0 <writei>
  101a55:	83 f8 10             	cmp    $0x10,%eax
  101a58:	75 2c                	jne    101a86 <dirlink+0xd6>
    panic("dirlink");
  101a5a:	31 c0                	xor    %eax,%eax
  
  return 0;
}
  101a5c:	83 c4 2c             	add    $0x2c,%esp
  101a5f:	5b                   	pop    %ebx
  101a60:	5e                   	pop    %esi
  101a61:	5f                   	pop    %edi
  101a62:	5d                   	pop    %ebp
  101a63:	c3                   	ret    
  struct dirent de;
  struct inode *ip;

  // Check that name is not present.
  if((ip = dirlookup(dp, name, 0)) != 0){
    iput(ip);
  101a64:	89 04 24             	mov    %eax,(%esp)
  101a67:	e8 f4 fd ff ff       	call   101860 <iput>
  101a6c:	b8 ff ff ff ff       	mov    $0xffffffff,%eax
    return -1;
  101a71:	eb e9                	jmp    101a5c <dirlink+0xac>
  }

  // Look for an empty dirent.
  for(off = 0; off < dp->size; off += sizeof(de)){
  101a73:	8d 7d d8             	lea    -0x28(%ebp),%edi
  101a76:	31 db                	xor    %ebx,%ebx
  101a78:	eb a2                	jmp    101a1c <dirlink+0x6c>
    if(readi(dp, (char*)&de, off, sizeof(de)) != sizeof(de))
      panic("dirlink read");
  101a7a:	c7 04 24 9b 65 10 00 	movl   $0x10659b,(%esp)
  101a81:	e8 2a ee ff ff       	call   1008b0 <panic>
  }

  strncpy(de.name, name, DIRSIZ);
  de.inum = inum;
  if(writei(dp, (char*)&de, off, sizeof(de)) != sizeof(de))
    panic("dirlink");
  101a86:	c7 04 24 6a 6b 10 00 	movl   $0x106b6a,(%esp)
  101a8d:	e8 1e ee ff ff       	call   1008b0 <panic>
  101a92:	8d b4 26 00 00 00 00 	lea    0x0(%esi,%eiz,1),%esi
  101a99:	8d bc 27 00 00 00 00 	lea    0x0(%edi,%eiz,1),%edi

00101aa0 <iunlockput>:
}

// Common idiom: unlock, then put.
void
iunlockput(struct inode *ip)
{
  101aa0:	55                   	push   %ebp
  101aa1:	89 e5                	mov    %esp,%ebp
  101aa3:	53                   	push   %ebx
  101aa4:	83 ec 14             	sub    $0x14,%esp
  101aa7:	8b 5d 08             	mov    0x8(%ebp),%ebx
  iunlock(ip);
  101aaa:	89 1c 24             	mov    %ebx,(%esp)
  101aad:	e8 9e fc ff ff       	call   101750 <iunlock>
  iput(ip);
  101ab2:	89 5d 08             	mov    %ebx,0x8(%ebp)
}
  101ab5:	83 c4 14             	add    $0x14,%esp
  101ab8:	5b                   	pop    %ebx
  101ab9:	5d                   	pop    %ebp
// Common idiom: unlock, then put.
void
iunlockput(struct inode *ip)
{
  iunlock(ip);
  iput(ip);
  101aba:	e9 a1 fd ff ff       	jmp    101860 <iput>
  101abf:	90                   	nop

00101ac0 <ialloc>:
static struct inode* iget(uint dev, uint inum);

// Allocate a new inode with the given type on device dev.
struct inode*
ialloc(uint dev, short type)
{
  101ac0:	55                   	push   %ebp
  101ac1:	89 e5                	mov    %esp,%ebp
  101ac3:	57                   	push   %edi
  101ac4:	56                   	push   %esi
  101ac5:	53                   	push   %ebx
  101ac6:	83 ec 3c             	sub    $0x3c,%esp
  101ac9:	0f b7 45 0c          	movzwl 0xc(%ebp),%eax
  int inum;
  struct buf *bp;
  struct dinode *dip;
  struct superblock sb;

  readsb(dev, &sb);
  101acd:	8d 55 dc             	lea    -0x24(%ebp),%edx
static struct inode* iget(uint dev, uint inum);

// Allocate a new inode with the given type on device dev.
struct inode*
ialloc(uint dev, short type)
{
  101ad0:	66 89 45 d6          	mov    %ax,-0x2a(%ebp)
  int inum;
  struct buf *bp;
  struct dinode *dip;
  struct superblock sb;

  readsb(dev, &sb);
  101ad4:	8b 45 08             	mov    0x8(%ebp),%eax
  101ad7:	e8 a4 f6 ff ff       	call   101180 <readsb>
  for(inum = 1; inum < sb.ninodes; inum++){  // loop over inode blocks
  101adc:	83 7d e4 01          	cmpl   $0x1,-0x1c(%ebp)
  101ae0:	0f 86 96 00 00 00    	jbe    101b7c <ialloc+0xbc>
  101ae6:	be 01 00 00 00       	mov    $0x1,%esi
  101aeb:	bb 01 00 00 00       	mov    $0x1,%ebx
  101af0:	eb 18                	jmp    101b0a <ialloc+0x4a>
  101af2:	8d b6 00 00 00 00    	lea    0x0(%esi),%esi
  101af8:	83 c3 01             	add    $0x1,%ebx
      dip->type = type;
      bwrite(bp);   // mark it allocated on the disk
      brelse(bp);
      return iget(dev, inum);
    }
    brelse(bp);
  101afb:	89 3c 24             	mov    %edi,(%esp)
  struct buf *bp;
  struct dinode *dip;
  struct superblock sb;

  readsb(dev, &sb);
  for(inum = 1; inum < sb.ninodes; inum++){  // loop over inode blocks
  101afe:	89 de                	mov    %ebx,%esi
      dip->type = type;
      bwrite(bp);   // mark it allocated on the disk
      brelse(bp);
      return iget(dev, inum);
    }
    brelse(bp);
  101b00:	e8 fb e4 ff ff       	call   100000 <brelse>
  struct buf *bp;
  struct dinode *dip;
  struct superblock sb;

  readsb(dev, &sb);
  for(inum = 1; inum < sb.ninodes; inum++){  // loop over inode blocks
  101b05:	39 5d e4             	cmp    %ebx,-0x1c(%ebp)
  101b08:	76 72                	jbe    101b7c <ialloc+0xbc>
    bp = bread(dev, IBLOCK(inum));
  101b0a:	89 f0                	mov    %esi,%eax
  101b0c:	c1 e8 03             	shr    $0x3,%eax
  101b0f:	83 c0 02             	add    $0x2,%eax
  101b12:	89 44 24 04          	mov    %eax,0x4(%esp)
  101b16:	8b 45 08             	mov    0x8(%ebp),%eax
  101b19:	89 04 24             	mov    %eax,(%esp)
  101b1c:	e8 8f e5 ff ff       	call   1000b0 <bread>
  101b21:	89 c7                	mov    %eax,%edi
    dip = (struct dinode*)bp->data + inum%IPB;
  101b23:	89 f0                	mov    %esi,%eax
  101b25:	83 e0 07             	and    $0x7,%eax
  101b28:	c1 e0 06             	shl    $0x6,%eax
  101b2b:	8d 54 07 18          	lea    0x18(%edi,%eax,1),%edx
    if(dip->type == 0){  // a free inode
  101b2f:	66 83 3a 00          	cmpw   $0x0,(%edx)
  101b33:	75 c3                	jne    101af8 <ialloc+0x38>
      memset(dip, 0, sizeof(*dip));
  101b35:	89 14 24             	mov    %edx,(%esp)
  101b38:	89 55 d0             	mov    %edx,-0x30(%ebp)
  101b3b:	c7 44 24 08 40 00 00 	movl   $0x40,0x8(%esp)
  101b42:	00 
  101b43:	c7 44 24 04 00 00 00 	movl   $0x0,0x4(%esp)
  101b4a:	00 
  101b4b:	e8 70 20 00 00       	call   103bc0 <memset>
      dip->type = type;
  101b50:	8b 55 d0             	mov    -0x30(%ebp),%edx
  101b53:	0f b7 45 d6          	movzwl -0x2a(%ebp),%eax
  101b57:	66 89 02             	mov    %ax,(%edx)
      bwrite(bp);   // mark it allocated on the disk
  101b5a:	89 3c 24             	mov    %edi,(%esp)
  101b5d:	e8 1e e5 ff ff       	call   100080 <bwrite>
      brelse(bp);
  101b62:	89 3c 24             	mov    %edi,(%esp)
  101b65:	e8 96 e4 ff ff       	call   100000 <brelse>
      return iget(dev, inum);
  101b6a:	8b 45 08             	mov    0x8(%ebp),%eax
  101b6d:	89 f2                	mov    %esi,%edx
  101b6f:	e8 4c f5 ff ff       	call   1010c0 <iget>
    }
    brelse(bp);
  }
  panic("ialloc: no inodes");
}
  101b74:	83 c4 3c             	add    $0x3c,%esp
  101b77:	5b                   	pop    %ebx
  101b78:	5e                   	pop    %esi
  101b79:	5f                   	pop    %edi
  101b7a:	5d                   	pop    %ebp
  101b7b:	c3                   	ret    
      brelse(bp);
      return iget(dev, inum);
    }
    brelse(bp);
  }
  panic("ialloc: no inodes");
  101b7c:	c7 04 24 a8 65 10 00 	movl   $0x1065a8,(%esp)
  101b83:	e8 28 ed ff ff       	call   1008b0 <panic>
  101b88:	90                   	nop
  101b89:	8d b4 26 00 00 00 00 	lea    0x0(%esi,%eiz,1),%esi

00101b90 <ilock>:
}

// Lock the given inode.
void
ilock(struct inode *ip)
{
  101b90:	55                   	push   %ebp
  101b91:	89 e5                	mov    %esp,%ebp
  101b93:	56                   	push   %esi
  101b94:	53                   	push   %ebx
  101b95:	83 ec 10             	sub    $0x10,%esp
  101b98:	8b 5d 08             	mov    0x8(%ebp),%ebx
  struct buf *bp;
  struct dinode *dip;

  if(ip == 0 || ip->ref < 1)
  101b9b:	85 db                	test   %ebx,%ebx
  101b9d:	0f 84 e5 00 00 00    	je     101c88 <ilock+0xf8>
  101ba3:	8b 4b 08             	mov    0x8(%ebx),%ecx
  101ba6:	85 c9                	test   %ecx,%ecx
  101ba8:	0f 8e da 00 00 00    	jle    101c88 <ilock+0xf8>
    panic("ilock");

  acquire(&icache.lock);
  101bae:	c7 04 24 60 9a 10 00 	movl   $0x109a60,(%esp)
  101bb5:	e8 66 1f 00 00       	call   103b20 <acquire>
  while(ip->flags & I_BUSY)
  101bba:	8b 43 0c             	mov    0xc(%ebx),%eax
  101bbd:	a8 01                	test   $0x1,%al
  101bbf:	74 1e                	je     101bdf <ilock+0x4f>
  101bc1:	8d b4 26 00 00 00 00 	lea    0x0(%esi,%eiz,1),%esi
    sleep(ip, &icache.lock);
  101bc8:	c7 44 24 04 60 9a 10 	movl   $0x109a60,0x4(%esp)
  101bcf:	00 
  101bd0:	89 1c 24             	mov    %ebx,(%esp)
  101bd3:	e8 98 15 00 00       	call   103170 <sleep>

  if(ip == 0 || ip->ref < 1)
    panic("ilock");

  acquire(&icache.lock);
  while(ip->flags & I_BUSY)
  101bd8:	8b 43 0c             	mov    0xc(%ebx),%eax
  101bdb:	a8 01                	test   $0x1,%al
  101bdd:	75 e9                	jne    101bc8 <ilock+0x38>
    sleep(ip, &icache.lock);
  ip->flags |= I_BUSY;
  101bdf:	83 c8 01             	or     $0x1,%eax
  101be2:	89 43 0c             	mov    %eax,0xc(%ebx)
  release(&icache.lock);
  101be5:	c7 04 24 60 9a 10 00 	movl   $0x109a60,(%esp)
  101bec:	e8 df 1e 00 00       	call   103ad0 <release>

  if(!(ip->flags & I_VALID)){
  101bf1:	f6 43 0c 02          	testb  $0x2,0xc(%ebx)
  101bf5:	74 09                	je     101c00 <ilock+0x70>
    brelse(bp);
    ip->flags |= I_VALID;
    if(ip->type == 0)
      panic("ilock: no type");
  }
}
  101bf7:	83 c4 10             	add    $0x10,%esp
  101bfa:	5b                   	pop    %ebx
  101bfb:	5e                   	pop    %esi
  101bfc:	5d                   	pop    %ebp
  101bfd:	c3                   	ret    
  101bfe:	66 90                	xchg   %ax,%ax
    sleep(ip, &icache.lock);
  ip->flags |= I_BUSY;
  release(&icache.lock);

  if(!(ip->flags & I_VALID)){
    bp = bread(ip->dev, IBLOCK(ip->inum));
  101c00:	8b 43 04             	mov    0x4(%ebx),%eax
  101c03:	c1 e8 03             	shr    $0x3,%eax
  101c06:	83 c0 02             	add    $0x2,%eax
  101c09:	89 44 24 04          	mov    %eax,0x4(%esp)
  101c0d:	8b 03                	mov    (%ebx),%eax
  101c0f:	89 04 24             	mov    %eax,(%esp)
  101c12:	e8 99 e4 ff ff       	call   1000b0 <bread>
  101c17:	89 c6                	mov    %eax,%esi
    dip = (struct dinode*)bp->data + ip->inum%IPB;
  101c19:	8b 43 04             	mov    0x4(%ebx),%eax
  101c1c:	83 e0 07             	and    $0x7,%eax
  101c1f:	c1 e0 06             	shl    $0x6,%eax
  101c22:	8d 44 06 18          	lea    0x18(%esi,%eax,1),%eax
    ip->type = dip->type;
  101c26:	0f b7 10             	movzwl (%eax),%edx
  101c29:	66 89 53 10          	mov    %dx,0x10(%ebx)
    ip->major = dip->major;
  101c2d:	0f b7 50 02          	movzwl 0x2(%eax),%edx
  101c31:	66 89 53 12          	mov    %dx,0x12(%ebx)
    ip->minor = dip->minor;
  101c35:	0f b7 50 04          	movzwl 0x4(%eax),%edx
  101c39:	66 89 53 14          	mov    %dx,0x14(%ebx)
    ip->nlink = dip->nlink;
  101c3d:	0f b7 50 06          	movzwl 0x6(%eax),%edx
  101c41:	66 89 53 16          	mov    %dx,0x16(%ebx)
    ip->size = dip->size;
  101c45:	8b 50 08             	mov    0x8(%eax),%edx
    memmove(ip->addrs, dip->addrs, sizeof(ip->addrs));
  101c48:	83 c0 0c             	add    $0xc,%eax
    dip = (struct dinode*)bp->data + ip->inum%IPB;
    ip->type = dip->type;
    ip->major = dip->major;
    ip->minor = dip->minor;
    ip->nlink = dip->nlink;
    ip->size = dip->size;
  101c4b:	89 53 18             	mov    %edx,0x18(%ebx)
    memmove(ip->addrs, dip->addrs, sizeof(ip->addrs));
  101c4e:	89 44 24 04          	mov    %eax,0x4(%esp)
  101c52:	8d 43 1c             	lea    0x1c(%ebx),%eax
  101c55:	c7 44 24 08 34 00 00 	movl   $0x34,0x8(%esp)
  101c5c:	00 
  101c5d:	89 04 24             	mov    %eax,(%esp)
  101c60:	e8 db 1f 00 00       	call   103c40 <memmove>
    brelse(bp);
  101c65:	89 34 24             	mov    %esi,(%esp)
  101c68:	e8 93 e3 ff ff       	call   100000 <brelse>
    ip->flags |= I_VALID;
  101c6d:	83 4b 0c 02          	orl    $0x2,0xc(%ebx)
    if(ip->type == 0)
  101c71:	66 83 7b 10 00       	cmpw   $0x0,0x10(%ebx)
  101c76:	0f 85 7b ff ff ff    	jne    101bf7 <ilock+0x67>
      panic("ilock: no type");
  101c7c:	c7 04 24 c0 65 10 00 	movl   $0x1065c0,(%esp)
  101c83:	e8 28 ec ff ff       	call   1008b0 <panic>
{
  struct buf *bp;
  struct dinode *dip;

  if(ip == 0 || ip->ref < 1)
    panic("ilock");
  101c88:	c7 04 24 ba 65 10 00 	movl   $0x1065ba,(%esp)
  101c8f:	e8 1c ec ff ff       	call   1008b0 <panic>
  101c94:	8d b6 00 00 00 00    	lea    0x0(%esi),%esi
  101c9a:	8d bf 00 00 00 00    	lea    0x0(%edi),%edi

00101ca0 <namex>:
// Look up and return the inode for a path name.
// If parent != 0, return the inode for the parent and copy the final
// path element into name, which must have room for DIRSIZ bytes.
static struct inode*
namex(char *path, int nameiparent, char *name)
{
  101ca0:	55                   	push   %ebp
  101ca1:	89 e5                	mov    %esp,%ebp
  101ca3:	57                   	push   %edi
  101ca4:	56                   	push   %esi
  101ca5:	53                   	push   %ebx
  101ca6:	89 c3                	mov    %eax,%ebx
  101ca8:	83 ec 2c             	sub    $0x2c,%esp
  101cab:	89 55 e0             	mov    %edx,-0x20(%ebp)
  101cae:	89 4d e4             	mov    %ecx,-0x1c(%ebp)
  struct inode *ip, *next;

  if(*path == '/')
  101cb1:	80 38 2f             	cmpb   $0x2f,(%eax)
  101cb4:	0f 84 14 01 00 00    	je     101dce <namex+0x12e>
    ip = iget(ROOTDEV, ROOTINO);
  else
    ip = idup(proc->cwd);
  101cba:	65 a1 04 00 00 00    	mov    %gs:0x4,%eax
  101cc0:	8b 40 68             	mov    0x68(%eax),%eax
  101cc3:	89 04 24             	mov    %eax,(%esp)
  101cc6:	e8 c5 f3 ff ff       	call   101090 <idup>
  101ccb:	89 c7                	mov    %eax,%edi
  101ccd:	eb 04                	jmp    101cd3 <namex+0x33>
  101ccf:	90                   	nop
{
  char *s;
  int len;

  while(*path == '/')
    path++;
  101cd0:	83 c3 01             	add    $0x1,%ebx
skipelem(char *path, char *name)
{
  char *s;
  int len;

  while(*path == '/')
  101cd3:	0f b6 03             	movzbl (%ebx),%eax
  101cd6:	3c 2f                	cmp    $0x2f,%al
  101cd8:	74 f6                	je     101cd0 <namex+0x30>
    path++;
  if(*path == 0)
  101cda:	84 c0                	test   %al,%al
  101cdc:	75 1a                	jne    101cf8 <namex+0x58>
      return 0;
    }
    iunlockput(ip);
    ip = next;
  }
  if(nameiparent){
  101cde:	8b 5d e0             	mov    -0x20(%ebp),%ebx
  101ce1:	85 db                	test   %ebx,%ebx
  101ce3:	0f 85 0d 01 00 00    	jne    101df6 <namex+0x156>
    iput(ip);
    return 0;
  }
  return ip;
}
  101ce9:	83 c4 2c             	add    $0x2c,%esp
  101cec:	89 f8                	mov    %edi,%eax
  101cee:	5b                   	pop    %ebx
  101cef:	5e                   	pop    %esi
  101cf0:	5f                   	pop    %edi
  101cf1:	5d                   	pop    %ebp
  101cf2:	c3                   	ret    
  101cf3:	90                   	nop
  101cf4:	8d 74 26 00          	lea    0x0(%esi,%eiz,1),%esi
  while(*path == '/')
    path++;
  if(*path == 0)
    return 0;
  s = path;
  while(*path != '/' && *path != 0)
  101cf8:	3c 2f                	cmp    $0x2f,%al
  101cfa:	0f 84 94 00 00 00    	je     101d94 <namex+0xf4>
  101d00:	89 de                	mov    %ebx,%esi
  101d02:	eb 08                	jmp    101d0c <namex+0x6c>
  101d04:	8d 74 26 00          	lea    0x0(%esi,%eiz,1),%esi
  101d08:	3c 2f                	cmp    $0x2f,%al
  101d0a:	74 0a                	je     101d16 <namex+0x76>
    path++;
  101d0c:	83 c6 01             	add    $0x1,%esi
  while(*path == '/')
    path++;
  if(*path == 0)
    return 0;
  s = path;
  while(*path != '/' && *path != 0)
  101d0f:	0f b6 06             	movzbl (%esi),%eax
  101d12:	84 c0                	test   %al,%al
  101d14:	75 f2                	jne    101d08 <namex+0x68>
  101d16:	89 f2                	mov    %esi,%edx
  101d18:	29 da                	sub    %ebx,%edx
    path++;
  len = path - s;
  if(len >= DIRSIZ)
  101d1a:	83 fa 0d             	cmp    $0xd,%edx
  101d1d:	7e 79                	jle    101d98 <namex+0xf8>
    memmove(name, s, DIRSIZ);
  101d1f:	c7 44 24 08 0e 00 00 	movl   $0xe,0x8(%esp)
  101d26:	00 
  101d27:	89 5c 24 04          	mov    %ebx,0x4(%esp)
  101d2b:	8b 45 e4             	mov    -0x1c(%ebp),%eax
  101d2e:	89 04 24             	mov    %eax,(%esp)
  101d31:	e8 0a 1f 00 00       	call   103c40 <memmove>
  101d36:	eb 03                	jmp    101d3b <namex+0x9b>
  else {
    memmove(name, s, len);
    name[len] = 0;
  }
  while(*path == '/')
    path++;
  101d38:	83 c6 01             	add    $0x1,%esi
    memmove(name, s, DIRSIZ);
  else {
    memmove(name, s, len);
    name[len] = 0;
  }
  while(*path == '/')
  101d3b:	80 3e 2f             	cmpb   $0x2f,(%esi)
  101d3e:	74 f8                	je     101d38 <namex+0x98>
  if(*path == '/')
    ip = iget(ROOTDEV, ROOTINO);
  else
    ip = idup(proc->cwd);

  while((path = skipelem(path, name)) != 0){
  101d40:	85 f6                	test   %esi,%esi
  101d42:	74 9a                	je     101cde <namex+0x3e>
    ilock(ip);
  101d44:	89 3c 24             	mov    %edi,(%esp)
  101d47:	e8 44 fe ff ff       	call   101b90 <ilock>
    if(ip->type != T_DIR){
  101d4c:	66 83 7f 10 01       	cmpw   $0x1,0x10(%edi)
  101d51:	75 67                	jne    101dba <namex+0x11a>
      iunlockput(ip);
      return 0;
    }
    if(nameiparent && *path == '\0'){
  101d53:	8b 45 e0             	mov    -0x20(%ebp),%eax
  101d56:	85 c0                	test   %eax,%eax
  101d58:	74 0c                	je     101d66 <namex+0xc6>
  101d5a:	80 3e 00             	cmpb   $0x0,(%esi)
  101d5d:	8d 76 00             	lea    0x0(%esi),%esi
  101d60:	0f 84 7e 00 00 00    	je     101de4 <namex+0x144>
      // Stop one level early.
      iunlock(ip);
      return ip;
    }
    if((next = dirlookup(ip, name, 0)) == 0){
  101d66:	c7 44 24 08 00 00 00 	movl   $0x0,0x8(%esp)
  101d6d:	00 
  101d6e:	8b 45 e4             	mov    -0x1c(%ebp),%eax
  101d71:	89 3c 24             	mov    %edi,(%esp)
  101d74:	89 44 24 04          	mov    %eax,0x4(%esp)
  101d78:	e8 d3 f8 ff ff       	call   101650 <dirlookup>
  101d7d:	85 c0                	test   %eax,%eax
  101d7f:	89 c3                	mov    %eax,%ebx
  101d81:	74 37                	je     101dba <namex+0x11a>
      iunlockput(ip);
      return 0;
    }
    iunlockput(ip);
  101d83:	89 3c 24             	mov    %edi,(%esp)
  101d86:	89 df                	mov    %ebx,%edi
  101d88:	89 f3                	mov    %esi,%ebx
  101d8a:	e8 11 fd ff ff       	call   101aa0 <iunlockput>
  101d8f:	e9 3f ff ff ff       	jmp    101cd3 <namex+0x33>
    memmove(name, s, DIRSIZ);
  else {
    memmove(name, s, len);
    name[len] = 0;
  }
  while(*path == '/')
  101d94:	89 de                	mov    %ebx,%esi
  101d96:	31 d2                	xor    %edx,%edx
    path++;
  len = path - s;
  if(len >= DIRSIZ)
    memmove(name, s, DIRSIZ);
  else {
    memmove(name, s, len);
  101d98:	89 54 24 08          	mov    %edx,0x8(%esp)
  101d9c:	89 5c 24 04          	mov    %ebx,0x4(%esp)
  101da0:	8b 45 e4             	mov    -0x1c(%ebp),%eax
  101da3:	89 04 24             	mov    %eax,(%esp)
  101da6:	89 55 dc             	mov    %edx,-0x24(%ebp)
  101da9:	e8 92 1e 00 00       	call   103c40 <memmove>
    name[len] = 0;
  101dae:	8b 55 dc             	mov    -0x24(%ebp),%edx
  101db1:	8b 45 e4             	mov    -0x1c(%ebp),%eax
  101db4:	c6 04 10 00          	movb   $0x0,(%eax,%edx,1)
  101db8:	eb 81                	jmp    101d3b <namex+0x9b>
      // Stop one level early.
      iunlock(ip);
      return ip;
    }
    if((next = dirlookup(ip, name, 0)) == 0){
      iunlockput(ip);
  101dba:	89 3c 24             	mov    %edi,(%esp)
  101dbd:	31 ff                	xor    %edi,%edi
  101dbf:	e8 dc fc ff ff       	call   101aa0 <iunlockput>
  if(nameiparent){
    iput(ip);
    return 0;
  }
  return ip;
}
  101dc4:	83 c4 2c             	add    $0x2c,%esp
  101dc7:	89 f8                	mov    %edi,%eax
  101dc9:	5b                   	pop    %ebx
  101dca:	5e                   	pop    %esi
  101dcb:	5f                   	pop    %edi
  101dcc:	5d                   	pop    %ebp
  101dcd:	c3                   	ret    
namex(char *path, int nameiparent, char *name)
{
  struct inode *ip, *next;

  if(*path == '/')
    ip = iget(ROOTDEV, ROOTINO);
  101dce:	ba 01 00 00 00       	mov    $0x1,%edx
  101dd3:	b8 01 00 00 00       	mov    $0x1,%eax
  101dd8:	e8 e3 f2 ff ff       	call   1010c0 <iget>
  101ddd:	89 c7                	mov    %eax,%edi
  101ddf:	e9 ef fe ff ff       	jmp    101cd3 <namex+0x33>
      iunlockput(ip);
      return 0;
    }
    if(nameiparent && *path == '\0'){
      // Stop one level early.
      iunlock(ip);
  101de4:	89 3c 24             	mov    %edi,(%esp)
  101de7:	e8 64 f9 ff ff       	call   101750 <iunlock>
  if(nameiparent){
    iput(ip);
    return 0;
  }
  return ip;
}
  101dec:	83 c4 2c             	add    $0x2c,%esp
  101def:	89 f8                	mov    %edi,%eax
  101df1:	5b                   	pop    %ebx
  101df2:	5e                   	pop    %esi
  101df3:	5f                   	pop    %edi
  101df4:	5d                   	pop    %ebp
  101df5:	c3                   	ret    
    }
    iunlockput(ip);
    ip = next;
  }
  if(nameiparent){
    iput(ip);
  101df6:	89 3c 24             	mov    %edi,(%esp)
  101df9:	31 ff                	xor    %edi,%edi
  101dfb:	e8 60 fa ff ff       	call   101860 <iput>
    return 0;
  101e00:	e9 e4 fe ff ff       	jmp    101ce9 <namex+0x49>
  101e05:	8d 74 26 00          	lea    0x0(%esi,%eiz,1),%esi
  101e09:	8d bc 27 00 00 00 00 	lea    0x0(%edi,%eiz,1),%edi

00101e10 <nameiparent>:
  return namex(path, 0, name);
}

struct inode*
nameiparent(char *path, char *name)
{
  101e10:	55                   	push   %ebp
  return namex(path, 1, name);
  101e11:	ba 01 00 00 00       	mov    $0x1,%edx
  return namex(path, 0, name);
}

struct inode*
nameiparent(char *path, char *name)
{
  101e16:	89 e5                	mov    %esp,%ebp
  101e18:	83 ec 08             	sub    $0x8,%esp
  return namex(path, 1, name);
  101e1b:	8b 4d 0c             	mov    0xc(%ebp),%ecx
  101e1e:	8b 45 08             	mov    0x8(%ebp),%eax
}
  101e21:	c9                   	leave  
}

struct inode*
nameiparent(char *path, char *name)
{
  return namex(path, 1, name);
  101e22:	e9 79 fe ff ff       	jmp    101ca0 <namex>
  101e27:	89 f6                	mov    %esi,%esi
  101e29:	8d bc 27 00 00 00 00 	lea    0x0(%edi,%eiz,1),%edi

00101e30 <namei>:
  return ip;
}

struct inode*
namei(char *path)
{
  101e30:	55                   	push   %ebp
  char name[DIRSIZ];
  return namex(path, 0, name);
  101e31:	31 d2                	xor    %edx,%edx
  return ip;
}

struct inode*
namei(char *path)
{
  101e33:	89 e5                	mov    %esp,%ebp
  101e35:	83 ec 18             	sub    $0x18,%esp
  char name[DIRSIZ];
  return namex(path, 0, name);
  101e38:	8b 45 08             	mov    0x8(%ebp),%eax
  101e3b:	8d 4d ea             	lea    -0x16(%ebp),%ecx
  101e3e:	e8 5d fe ff ff       	call   101ca0 <namex>
}
  101e43:	c9                   	leave  
  101e44:	c3                   	ret    
  101e45:	8d 74 26 00          	lea    0x0(%esi,%eiz,1),%esi
  101e49:	8d bc 27 00 00 00 00 	lea    0x0(%edi,%eiz,1),%edi

00101e50 <iinit>:
  struct inode inode[NINODE];
} icache;

void
iinit(void)
{
  101e50:	55                   	push   %ebp
  101e51:	89 e5                	mov    %esp,%ebp
  101e53:	83 ec 18             	sub    $0x18,%esp
  initlock(&icache.lock, "icache");
  101e56:	c7 44 24 04 cf 65 10 	movl   $0x1065cf,0x4(%esp)
  101e5d:	00 
  101e5e:	c7 04 24 60 9a 10 00 	movl   $0x109a60,(%esp)
  101e65:	e8 26 1b 00 00       	call   103990 <initlock>
}
  101e6a:	c9                   	leave  
  101e6b:	c3                   	ret    
  101e6c:	90                   	nop
  101e6d:	90                   	nop
  101e6e:	90                   	nop
  101e6f:	90                   	nop

00101e70 <idestart>:
}

// Start the request for b.  Caller must hold idelock.
static void
idestart(struct buf *b)
{
  101e70:	55                   	push   %ebp
  101e71:	89 e5                	mov    %esp,%ebp
  101e73:	56                   	push   %esi
  101e74:	89 c6                	mov    %eax,%esi
  101e76:	83 ec 14             	sub    $0x14,%esp
  if(b == 0)
  101e79:	85 c0                	test   %eax,%eax
  101e7b:	0f 84 8d 00 00 00    	je     101f0e <idestart+0x9e>
static inline uchar
inb(ushort port)
{
  uchar data;

  asm volatile("in %1,%0" : "=a" (data) : "d" (port));
  101e81:	ba f7 01 00 00       	mov    $0x1f7,%edx
  101e86:	66 90                	xchg   %ax,%ax
  101e88:	ec                   	in     (%dx),%al
static int
idewait(int checkerr)
{
  int r;

  while(((r = inb(0x1f7)) & (IDE_BSY|IDE_DRDY)) != IDE_DRDY) 
  101e89:	25 c0 00 00 00       	and    $0xc0,%eax
  101e8e:	83 f8 40             	cmp    $0x40,%eax
  101e91:	75 f5                	jne    101e88 <idestart+0x18>
}

static inline void
outb(ushort port, uchar data)
{
  asm volatile("out %0,%1" : : "a" (data), "d" (port));
  101e93:	ba f6 03 00 00       	mov    $0x3f6,%edx
  101e98:	31 c0                	xor    %eax,%eax
  101e9a:	ee                   	out    %al,(%dx)
  101e9b:	ba f2 01 00 00       	mov    $0x1f2,%edx
  101ea0:	b8 01 00 00 00       	mov    $0x1,%eax
  101ea5:	ee                   	out    %al,(%dx)
    panic("idestart");

  idewait(0);
  outb(0x3f6, 0);  // generate interrupt
  outb(0x1f2, 1);  // number of sectors
  outb(0x1f3, b->sector & 0xff);
  101ea6:	8b 4e 08             	mov    0x8(%esi),%ecx
  101ea9:	b2 f3                	mov    $0xf3,%dl
  101eab:	89 c8                	mov    %ecx,%eax
  101ead:	ee                   	out    %al,(%dx)
  101eae:	89 c8                	mov    %ecx,%eax
  101eb0:	b2 f4                	mov    $0xf4,%dl
  101eb2:	c1 e8 08             	shr    $0x8,%eax
  101eb5:	ee                   	out    %al,(%dx)
  101eb6:	89 c8                	mov    %ecx,%eax
  101eb8:	b2 f5                	mov    $0xf5,%dl
  101eba:	c1 e8 10             	shr    $0x10,%eax
  101ebd:	ee                   	out    %al,(%dx)
  101ebe:	8b 46 04             	mov    0x4(%esi),%eax
  101ec1:	c1 e9 18             	shr    $0x18,%ecx
  101ec4:	b2 f6                	mov    $0xf6,%dl
  101ec6:	83 e1 0f             	and    $0xf,%ecx
  101ec9:	83 e0 01             	and    $0x1,%eax
  101ecc:	c1 e0 04             	shl    $0x4,%eax
  101ecf:	09 c8                	or     %ecx,%eax
  101ed1:	83 c8 e0             	or     $0xffffffe0,%eax
  101ed4:	ee                   	out    %al,(%dx)
  outb(0x1f4, (b->sector >> 8) & 0xff);
  outb(0x1f5, (b->sector >> 16) & 0xff);
  outb(0x1f6, 0xe0 | ((b->dev&1)<<4) | ((b->sector>>24)&0x0f));
  if(b->flags & B_DIRTY){
  101ed5:	f6 06 04             	testb  $0x4,(%esi)
  101ed8:	75 16                	jne    101ef0 <idestart+0x80>
  101eda:	ba f7 01 00 00       	mov    $0x1f7,%edx
  101edf:	b8 20 00 00 00       	mov    $0x20,%eax
  101ee4:	ee                   	out    %al,(%dx)
    outb(0x1f7, IDE_CMD_WRITE);
    outsl(0x1f0, b->data, 512/4);
  } else {
    outb(0x1f7, IDE_CMD_READ);
  }
}
  101ee5:	83 c4 14             	add    $0x14,%esp
  101ee8:	5e                   	pop    %esi
  101ee9:	5d                   	pop    %ebp
  101eea:	c3                   	ret    
  101eeb:	90                   	nop
  101eec:	8d 74 26 00          	lea    0x0(%esi,%eiz,1),%esi
  101ef0:	b2 f7                	mov    $0xf7,%dl
  101ef2:	b8 30 00 00 00       	mov    $0x30,%eax
  101ef7:	ee                   	out    %al,(%dx)
}

static inline void
outsl(int port, const void *addr, int cnt)
{
  asm volatile("cld; rep outsl" :
  101ef8:	b9 80 00 00 00       	mov    $0x80,%ecx
  101efd:	83 c6 18             	add    $0x18,%esi
  101f00:	ba f0 01 00 00       	mov    $0x1f0,%edx
  101f05:	fc                   	cld    
  101f06:	f3 6f                	rep outsl %ds:(%esi),(%dx)
  101f08:	83 c4 14             	add    $0x14,%esp
  101f0b:	5e                   	pop    %esi
  101f0c:	5d                   	pop    %ebp
  101f0d:	c3                   	ret    
// Start the request for b.  Caller must hold idelock.
static void
idestart(struct buf *b)
{
  if(b == 0)
    panic("idestart");
  101f0e:	c7 04 24 d6 65 10 00 	movl   $0x1065d6,(%esp)
  101f15:	e8 96 e9 ff ff       	call   1008b0 <panic>
  101f1a:	8d b6 00 00 00 00    	lea    0x0(%esi),%esi

00101f20 <iderw>:
// Sync buf with disk. 
// If B_DIRTY is set, write buf to disk, clear B_DIRTY, set B_VALID.
// Else if B_VALID is not set, read buf from disk, set B_VALID.
void
iderw(struct buf *b)
{
  101f20:	55                   	push   %ebp
  101f21:	89 e5                	mov    %esp,%ebp
  101f23:	53                   	push   %ebx
  101f24:	83 ec 14             	sub    $0x14,%esp
  101f27:	8b 5d 08             	mov    0x8(%ebp),%ebx
  struct buf **pp;

  if(!(b->flags & B_BUSY))
  101f2a:	8b 03                	mov    (%ebx),%eax
  101f2c:	a8 01                	test   $0x1,%al
  101f2e:	0f 84 90 00 00 00    	je     101fc4 <iderw+0xa4>
    panic("iderw: buf not busy");
  if((b->flags & (B_VALID|B_DIRTY)) == B_VALID)
  101f34:	83 e0 06             	and    $0x6,%eax
  101f37:	83 f8 02             	cmp    $0x2,%eax
  101f3a:	0f 84 9c 00 00 00    	je     101fdc <iderw+0xbc>
    panic("iderw: nothing to do");
  if(b->dev != 0 && !havedisk1)
  101f40:	8b 53 04             	mov    0x4(%ebx),%edx
  101f43:	85 d2                	test   %edx,%edx
  101f45:	74 0d                	je     101f54 <iderw+0x34>
  101f47:	a1 38 78 10 00       	mov    0x107838,%eax
  101f4c:	85 c0                	test   %eax,%eax
  101f4e:	0f 84 7c 00 00 00    	je     101fd0 <iderw+0xb0>
    panic("idrw: ide disk 1 not present");

  acquire(&idelock);
  101f54:	c7 04 24 00 78 10 00 	movl   $0x107800,(%esp)
  101f5b:	e8 c0 1b 00 00       	call   103b20 <acquire>

  // Append b to idequeue.
  b->qnext = 0;
  for(pp=&idequeue; *pp; pp=&(*pp)->qnext)
  101f60:	ba 34 78 10 00       	mov    $0x107834,%edx
    panic("idrw: ide disk 1 not present");

  acquire(&idelock);

  // Append b to idequeue.
  b->qnext = 0;
  101f65:	c7 43 14 00 00 00 00 	movl   $0x0,0x14(%ebx)
  101f6c:	a1 34 78 10 00       	mov    0x107834,%eax
  for(pp=&idequeue; *pp; pp=&(*pp)->qnext)
  101f71:	85 c0                	test   %eax,%eax
  101f73:	74 0d                	je     101f82 <iderw+0x62>
  101f75:	8d 76 00             	lea    0x0(%esi),%esi
  101f78:	8d 50 14             	lea    0x14(%eax),%edx
  101f7b:	8b 40 14             	mov    0x14(%eax),%eax
  101f7e:	85 c0                	test   %eax,%eax
  101f80:	75 f6                	jne    101f78 <iderw+0x58>
    ;
  *pp = b;
  101f82:	89 1a                	mov    %ebx,(%edx)
  
  // Start disk if necessary.
  if(idequeue == b)
  101f84:	39 1d 34 78 10 00    	cmp    %ebx,0x107834
  101f8a:	75 14                	jne    101fa0 <iderw+0x80>
  101f8c:	eb 2d                	jmp    101fbb <iderw+0x9b>
  101f8e:	66 90                	xchg   %ax,%ax
    idestart(b);
  
  // Wait for request to finish.
  // Assuming will not sleep too long: ignore proc->killed.
  while((b->flags & (B_VALID|B_DIRTY)) != B_VALID) {
    sleep(b, &idelock);
  101f90:	c7 44 24 04 00 78 10 	movl   $0x107800,0x4(%esp)
  101f97:	00 
  101f98:	89 1c 24             	mov    %ebx,(%esp)
  101f9b:	e8 d0 11 00 00       	call   103170 <sleep>
  if(idequeue == b)
    idestart(b);
  
  // Wait for request to finish.
  // Assuming will not sleep too long: ignore proc->killed.
  while((b->flags & (B_VALID|B_DIRTY)) != B_VALID) {
  101fa0:	8b 03                	mov    (%ebx),%eax
  101fa2:	83 e0 06             	and    $0x6,%eax
  101fa5:	83 f8 02             	cmp    $0x2,%eax
  101fa8:	75 e6                	jne    101f90 <iderw+0x70>
    sleep(b, &idelock);
  }

  release(&idelock);
  101faa:	c7 45 08 00 78 10 00 	movl   $0x107800,0x8(%ebp)
}
  101fb1:	83 c4 14             	add    $0x14,%esp
  101fb4:	5b                   	pop    %ebx
  101fb5:	5d                   	pop    %ebp
  // Assuming will not sleep too long: ignore proc->killed.
  while((b->flags & (B_VALID|B_DIRTY)) != B_VALID) {
    sleep(b, &idelock);
  }

  release(&idelock);
  101fb6:	e9 15 1b 00 00       	jmp    103ad0 <release>
    ;
  *pp = b;
  
  // Start disk if necessary.
  if(idequeue == b)
    idestart(b);
  101fbb:	89 d8                	mov    %ebx,%eax
  101fbd:	e8 ae fe ff ff       	call   101e70 <idestart>
  101fc2:	eb dc                	jmp    101fa0 <iderw+0x80>
iderw(struct buf *b)
{
  struct buf **pp;

  if(!(b->flags & B_BUSY))
    panic("iderw: buf not busy");
  101fc4:	c7 04 24 df 65 10 00 	movl   $0x1065df,(%esp)
  101fcb:	e8 e0 e8 ff ff       	call   1008b0 <panic>
  if((b->flags & (B_VALID|B_DIRTY)) == B_VALID)
    panic("iderw: nothing to do");
  if(b->dev != 0 && !havedisk1)
    panic("idrw: ide disk 1 not present");
  101fd0:	c7 04 24 08 66 10 00 	movl   $0x106608,(%esp)
  101fd7:	e8 d4 e8 ff ff       	call   1008b0 <panic>
  struct buf **pp;

  if(!(b->flags & B_BUSY))
    panic("iderw: buf not busy");
  if((b->flags & (B_VALID|B_DIRTY)) == B_VALID)
    panic("iderw: nothing to do");
  101fdc:	c7 04 24 f3 65 10 00 	movl   $0x1065f3,(%esp)
  101fe3:	e8 c8 e8 ff ff       	call   1008b0 <panic>
  101fe8:	90                   	nop
  101fe9:	8d b4 26 00 00 00 00 	lea    0x0(%esi,%eiz,1),%esi

00101ff0 <ideintr>:
}

// Interrupt handler.
void
ideintr(void)
{
  101ff0:	55                   	push   %ebp
  101ff1:	89 e5                	mov    %esp,%ebp
  101ff3:	57                   	push   %edi
  101ff4:	53                   	push   %ebx
  101ff5:	83 ec 10             	sub    $0x10,%esp
  struct buf *b;

  // Take first buffer off queue.
  acquire(&idelock);
  101ff8:	c7 04 24 00 78 10 00 	movl   $0x107800,(%esp)
  101fff:	e8 1c 1b 00 00       	call   103b20 <acquire>
  if((b = idequeue) == 0){
  102004:	8b 1d 34 78 10 00    	mov    0x107834,%ebx
  10200a:	85 db                	test   %ebx,%ebx
  10200c:	74 7a                	je     102088 <ideintr+0x98>
    release(&idelock);
    cprintf("Spurious IDE interrupt.\n");
    return;
  }
  idequeue = b->qnext;
  10200e:	8b 43 14             	mov    0x14(%ebx),%eax
  102011:	a3 34 78 10 00       	mov    %eax,0x107834

  // Read data if needed.
  if(!(b->flags & B_DIRTY) && idewait(1) >= 0)
  102016:	8b 0b                	mov    (%ebx),%ecx
  102018:	f6 c1 04             	test   $0x4,%cl
  10201b:	74 33                	je     102050 <ideintr+0x60>
    insl(0x1f0, b->data, 512/4);
  
  // Wake process waiting for this buf.
  b->flags |= B_VALID;
  b->flags &= ~B_DIRTY;
  10201d:	83 c9 02             	or     $0x2,%ecx
  102020:	83 e1 fb             	and    $0xfffffffb,%ecx
  102023:	89 0b                	mov    %ecx,(%ebx)
  wakeup(b);
  102025:	89 1c 24             	mov    %ebx,(%esp)
  102028:	e8 23 10 00 00       	call   103050 <wakeup>
  
  // Start disk on next buf in queue.
  if(idequeue != 0)
  10202d:	a1 34 78 10 00       	mov    0x107834,%eax
  102032:	85 c0                	test   %eax,%eax
  102034:	74 05                	je     10203b <ideintr+0x4b>
    idestart(idequeue);
  102036:	e8 35 fe ff ff       	call   101e70 <idestart>

  release(&idelock);
  10203b:	c7 04 24 00 78 10 00 	movl   $0x107800,(%esp)
  102042:	e8 89 1a 00 00       	call   103ad0 <release>
}
  102047:	83 c4 10             	add    $0x10,%esp
  10204a:	5b                   	pop    %ebx
  10204b:	5f                   	pop    %edi
  10204c:	5d                   	pop    %ebp
  10204d:	c3                   	ret    
  10204e:	66 90                	xchg   %ax,%ax
static inline uchar
inb(ushort port)
{
  uchar data;

  asm volatile("in %1,%0" : "=a" (data) : "d" (port));
  102050:	ba f7 01 00 00       	mov    $0x1f7,%edx
  102055:	8d 76 00             	lea    0x0(%esi),%esi
  102058:	ec                   	in     (%dx),%al
static int
idewait(int checkerr)
{
  int r;

  while(((r = inb(0x1f7)) & (IDE_BSY|IDE_DRDY)) != IDE_DRDY) 
  102059:	0f b6 c0             	movzbl %al,%eax
  10205c:	89 c7                	mov    %eax,%edi
  10205e:	81 e7 c0 00 00 00    	and    $0xc0,%edi
  102064:	83 ff 40             	cmp    $0x40,%edi
  102067:	75 ef                	jne    102058 <ideintr+0x68>
    ;
  if(checkerr && (r & (IDE_DF|IDE_ERR)) != 0)
  102069:	a8 21                	test   $0x21,%al
  10206b:	75 b0                	jne    10201d <ideintr+0x2d>
}

static inline void
insl(int port, void *addr, int cnt)
{
  asm volatile("cld; rep insl" :
  10206d:	8d 7b 18             	lea    0x18(%ebx),%edi
  102070:	b9 80 00 00 00       	mov    $0x80,%ecx
  102075:	ba f0 01 00 00       	mov    $0x1f0,%edx
  10207a:	fc                   	cld    
  10207b:	f3 6d                	rep insl (%dx),%es:(%edi)
  10207d:	8b 0b                	mov    (%ebx),%ecx
  10207f:	eb 9c                	jmp    10201d <ideintr+0x2d>
  102081:	8d b4 26 00 00 00 00 	lea    0x0(%esi,%eiz,1),%esi
  struct buf *b;

  // Take first buffer off queue.
  acquire(&idelock);
  if((b = idequeue) == 0){
    release(&idelock);
  102088:	c7 04 24 00 78 10 00 	movl   $0x107800,(%esp)
  10208f:	e8 3c 1a 00 00       	call   103ad0 <release>
    cprintf("Spurious IDE interrupt.\n");
  102094:	c7 04 24 25 66 10 00 	movl   $0x106625,(%esp)
  10209b:	e8 20 e4 ff ff       	call   1004c0 <cprintf>
    return;
  1020a0:	eb a5                	jmp    102047 <ideintr+0x57>
  1020a2:	8d b4 26 00 00 00 00 	lea    0x0(%esi,%eiz,1),%esi
  1020a9:	8d bc 27 00 00 00 00 	lea    0x0(%edi,%eiz,1),%edi

001020b0 <ideinit>:
  return 0;
}

void
ideinit(void)
{
  1020b0:	55                   	push   %ebp
  1020b1:	89 e5                	mov    %esp,%ebp
  1020b3:	83 ec 18             	sub    $0x18,%esp
  int i;

  initlock(&idelock, "ide");
  1020b6:	c7 44 24 04 3e 66 10 	movl   $0x10663e,0x4(%esp)
  1020bd:	00 
  1020be:	c7 04 24 00 78 10 00 	movl   $0x107800,(%esp)
  1020c5:	e8 c6 18 00 00       	call   103990 <initlock>
  picenable(IRQ_IDE);
  1020ca:	c7 04 24 0e 00 00 00 	movl   $0xe,(%esp)
  1020d1:	e8 aa 0a 00 00       	call   102b80 <picenable>
  ioapicenable(IRQ_IDE, ncpu - 1);
  1020d6:	a1 80 b0 10 00       	mov    0x10b080,%eax
  1020db:	c7 04 24 0e 00 00 00 	movl   $0xe,(%esp)
  1020e2:	83 e8 01             	sub    $0x1,%eax
  1020e5:	89 44 24 04          	mov    %eax,0x4(%esp)
  1020e9:	e8 52 00 00 00       	call   102140 <ioapicenable>
static inline uchar
inb(ushort port)
{
  uchar data;

  asm volatile("in %1,%0" : "=a" (data) : "d" (port));
  1020ee:	ba f7 01 00 00       	mov    $0x1f7,%edx
  1020f3:	90                   	nop
  1020f4:	8d 74 26 00          	lea    0x0(%esi,%eiz,1),%esi
  1020f8:	ec                   	in     (%dx),%al
static int
idewait(int checkerr)
{
  int r;

  while(((r = inb(0x1f7)) & (IDE_BSY|IDE_DRDY)) != IDE_DRDY) 
  1020f9:	25 c0 00 00 00       	and    $0xc0,%eax
  1020fe:	83 f8 40             	cmp    $0x40,%eax
  102101:	75 f5                	jne    1020f8 <ideinit+0x48>
}

static inline void
outb(ushort port, uchar data)
{
  asm volatile("out %0,%1" : : "a" (data), "d" (port));
  102103:	ba f6 01 00 00       	mov    $0x1f6,%edx
  102108:	b8 f0 ff ff ff       	mov    $0xfffffff0,%eax
  10210d:	ee                   	out    %al,(%dx)
  10210e:	31 c9                	xor    %ecx,%ecx
static inline uchar
inb(ushort port)
{
  uchar data;

  asm volatile("in %1,%0" : "=a" (data) : "d" (port));
  102110:	b2 f7                	mov    $0xf7,%dl
  102112:	eb 0f                	jmp    102123 <ideinit+0x73>
  102114:	8d 74 26 00          	lea    0x0(%esi,%eiz,1),%esi
  ioapicenable(IRQ_IDE, ncpu - 1);
  idewait(0);
  
  // Check if disk 1 is present
  outb(0x1f6, 0xe0 | (1<<4));
  for(i=0; i<1000; i++){
  102118:	83 c1 01             	add    $0x1,%ecx
  10211b:	81 f9 e8 03 00 00    	cmp    $0x3e8,%ecx
  102121:	74 0f                	je     102132 <ideinit+0x82>
  102123:	ec                   	in     (%dx),%al
    if(inb(0x1f7) != 0){
  102124:	84 c0                	test   %al,%al
  102126:	74 f0                	je     102118 <ideinit+0x68>
      havedisk1 = 1;
  102128:	c7 05 38 78 10 00 01 	movl   $0x1,0x107838
  10212f:	00 00 00 
}

static inline void
outb(ushort port, uchar data)
{
  asm volatile("out %0,%1" : : "a" (data), "d" (port));
  102132:	ba f6 01 00 00       	mov    $0x1f6,%edx
  102137:	b8 e0 ff ff ff       	mov    $0xffffffe0,%eax
  10213c:	ee                   	out    %al,(%dx)
    }
  }
  
  // Switch back to disk 0.
  outb(0x1f6, 0xe0 | (0<<4));
}
  10213d:	c9                   	leave  
  10213e:	c3                   	ret    
  10213f:	90                   	nop

00102140 <ioapicenable>:
}

void
ioapicenable(int irq, int cpunum)
{
  if(!ismp)
  102140:	8b 15 84 aa 10 00    	mov    0x10aa84,%edx
  }
}

void
ioapicenable(int irq, int cpunum)
{
  102146:	55                   	push   %ebp
  102147:	89 e5                	mov    %esp,%ebp
  102149:	8b 45 08             	mov    0x8(%ebp),%eax
  if(!ismp)
  10214c:	85 d2                	test   %edx,%edx
  10214e:	74 31                	je     102181 <ioapicenable+0x41>
}

static void
ioapicwrite(int reg, uint data)
{
  ioapic->reg = reg;
  102150:	8b 15 34 aa 10 00    	mov    0x10aa34,%edx
    return;

  // Mark interrupt edge-triggered, active high,
  // enabled, and routed to the given cpunum,
  // which happens to be that cpu's APIC ID.
  ioapicwrite(REG_TABLE+2*irq, T_IRQ0 + irq);
  102156:	8d 48 20             	lea    0x20(%eax),%ecx
  102159:	8d 44 00 10          	lea    0x10(%eax,%eax,1),%eax
}

static void
ioapicwrite(int reg, uint data)
{
  ioapic->reg = reg;
  10215d:	89 02                	mov    %eax,(%edx)
  ioapic->data = data;
  10215f:	8b 15 34 aa 10 00    	mov    0x10aa34,%edx
}

static void
ioapicwrite(int reg, uint data)
{
  ioapic->reg = reg;
  102165:	83 c0 01             	add    $0x1,%eax
  ioapic->data = data;
  102168:	89 4a 10             	mov    %ecx,0x10(%edx)
}

static void
ioapicwrite(int reg, uint data)
{
  ioapic->reg = reg;
  10216b:	8b 0d 34 aa 10 00    	mov    0x10aa34,%ecx

  // Mark interrupt edge-triggered, active high,
  // enabled, and routed to the given cpunum,
  // which happens to be that cpu's APIC ID.
  ioapicwrite(REG_TABLE+2*irq, T_IRQ0 + irq);
  ioapicwrite(REG_TABLE+2*irq+1, cpunum << 24);
  102171:	8b 55 0c             	mov    0xc(%ebp),%edx
}

static void
ioapicwrite(int reg, uint data)
{
  ioapic->reg = reg;
  102174:	89 01                	mov    %eax,(%ecx)
  ioapic->data = data;
  102176:	a1 34 aa 10 00       	mov    0x10aa34,%eax

  // Mark interrupt edge-triggered, active high,
  // enabled, and routed to the given cpunum,
  // which happens to be that cpu's APIC ID.
  ioapicwrite(REG_TABLE+2*irq, T_IRQ0 + irq);
  ioapicwrite(REG_TABLE+2*irq+1, cpunum << 24);
  10217b:	c1 e2 18             	shl    $0x18,%edx

static void
ioapicwrite(int reg, uint data)
{
  ioapic->reg = reg;
  ioapic->data = data;
  10217e:	89 50 10             	mov    %edx,0x10(%eax)
  // Mark interrupt edge-triggered, active high,
  // enabled, and routed to the given cpunum,
  // which happens to be that cpu's APIC ID.
  ioapicwrite(REG_TABLE+2*irq, T_IRQ0 + irq);
  ioapicwrite(REG_TABLE+2*irq+1, cpunum << 24);
}
  102181:	5d                   	pop    %ebp
  102182:	c3                   	ret    
  102183:	8d b6 00 00 00 00    	lea    0x0(%esi),%esi
  102189:	8d bc 27 00 00 00 00 	lea    0x0(%edi,%eiz,1),%edi

00102190 <ioapicinit>:
  ioapic->data = data;
}

void
ioapicinit(void)
{
  102190:	55                   	push   %ebp
  102191:	89 e5                	mov    %esp,%ebp
  102193:	56                   	push   %esi
  102194:	53                   	push   %ebx
  102195:	83 ec 10             	sub    $0x10,%esp
  int i, id, maxintr;

  if(!ismp)
  102198:	8b 0d 84 aa 10 00    	mov    0x10aa84,%ecx
  10219e:	85 c9                	test   %ecx,%ecx
  1021a0:	0f 84 9e 00 00 00    	je     102244 <ioapicinit+0xb4>
};

static uint
ioapicread(int reg)
{
  ioapic->reg = reg;
  1021a6:	c7 05 00 00 c0 fe 01 	movl   $0x1,0xfec00000
  1021ad:	00 00 00 
  return ioapic->data;
  1021b0:	8b 35 10 00 c0 fe    	mov    0xfec00010,%esi
    return;

  ioapic = (volatile struct ioapic*)IOAPIC;
  maxintr = (ioapicread(REG_VER) >> 16) & 0xFF;
  id = ioapicread(REG_ID) >> 24;
  if(id != ioapicid)
  1021b6:	bb 00 00 c0 fe       	mov    $0xfec00000,%ebx
};

static uint
ioapicread(int reg)
{
  ioapic->reg = reg;
  1021bb:	c7 05 00 00 c0 fe 00 	movl   $0x0,0xfec00000
  1021c2:	00 00 00 
  return ioapic->data;
  1021c5:	a1 10 00 c0 fe       	mov    0xfec00010,%eax
    return;

  ioapic = (volatile struct ioapic*)IOAPIC;
  maxintr = (ioapicread(REG_VER) >> 16) & 0xFF;
  id = ioapicread(REG_ID) >> 24;
  if(id != ioapicid)
  1021ca:	0f b6 15 80 aa 10 00 	movzbl 0x10aa80,%edx
  int i, id, maxintr;

  if(!ismp)
    return;

  ioapic = (volatile struct ioapic*)IOAPIC;
  1021d1:	c7 05 34 aa 10 00 00 	movl   $0xfec00000,0x10aa34
  1021d8:	00 c0 fe 
  maxintr = (ioapicread(REG_VER) >> 16) & 0xFF;
  1021db:	c1 ee 10             	shr    $0x10,%esi
  id = ioapicread(REG_ID) >> 24;
  if(id != ioapicid)
  1021de:	c1 e8 18             	shr    $0x18,%eax

  if(!ismp)
    return;

  ioapic = (volatile struct ioapic*)IOAPIC;
  maxintr = (ioapicread(REG_VER) >> 16) & 0xFF;
  1021e1:	81 e6 ff 00 00 00    	and    $0xff,%esi
  id = ioapicread(REG_ID) >> 24;
  if(id != ioapicid)
  1021e7:	39 c2                	cmp    %eax,%edx
  1021e9:	74 12                	je     1021fd <ioapicinit+0x6d>
    cprintf("ioapicinit: id isn't equal to ioapicid; not a MP\n");
  1021eb:	c7 04 24 44 66 10 00 	movl   $0x106644,(%esp)
  1021f2:	e8 c9 e2 ff ff       	call   1004c0 <cprintf>
  1021f7:	8b 1d 34 aa 10 00    	mov    0x10aa34,%ebx
  1021fd:	ba 10 00 00 00       	mov    $0x10,%edx
  102202:	31 c0                	xor    %eax,%eax
  102204:	eb 08                	jmp    10220e <ioapicinit+0x7e>
  102206:	66 90                	xchg   %ax,%ax

  // Mark all interrupts edge-triggered, active high, disabled,
  // and not routed to any CPUs.
  for(i = 0; i <= maxintr; i++){
  102208:	8b 1d 34 aa 10 00    	mov    0x10aa34,%ebx
}

static void
ioapicwrite(int reg, uint data)
{
  ioapic->reg = reg;
  10220e:	89 13                	mov    %edx,(%ebx)
  ioapic->data = data;
  102210:	8b 1d 34 aa 10 00    	mov    0x10aa34,%ebx
    cprintf("ioapicinit: id isn't equal to ioapicid; not a MP\n");

  // Mark all interrupts edge-triggered, active high, disabled,
  // and not routed to any CPUs.
  for(i = 0; i <= maxintr; i++){
    ioapicwrite(REG_TABLE+2*i, INT_DISABLED | (T_IRQ0 + i));
  102216:	8d 48 20             	lea    0x20(%eax),%ecx
  102219:	81 c9 00 00 01 00    	or     $0x10000,%ecx
  if(id != ioapicid)
    cprintf("ioapicinit: id isn't equal to ioapicid; not a MP\n");

  // Mark all interrupts edge-triggered, active high, disabled,
  // and not routed to any CPUs.
  for(i = 0; i <= maxintr; i++){
  10221f:	83 c0 01             	add    $0x1,%eax

static void
ioapicwrite(int reg, uint data)
{
  ioapic->reg = reg;
  ioapic->data = data;
  102222:	89 4b 10             	mov    %ecx,0x10(%ebx)
}

static void
ioapicwrite(int reg, uint data)
{
  ioapic->reg = reg;
  102225:	8b 0d 34 aa 10 00    	mov    0x10aa34,%ecx
  10222b:	8d 5a 01             	lea    0x1(%edx),%ebx
  if(id != ioapicid)
    cprintf("ioapicinit: id isn't equal to ioapicid; not a MP\n");

  // Mark all interrupts edge-triggered, active high, disabled,
  // and not routed to any CPUs.
  for(i = 0; i <= maxintr; i++){
  10222e:	83 c2 02             	add    $0x2,%edx
  102231:	39 c6                	cmp    %eax,%esi
}

static void
ioapicwrite(int reg, uint data)
{
  ioapic->reg = reg;
  102233:	89 19                	mov    %ebx,(%ecx)
  ioapic->data = data;
  102235:	8b 0d 34 aa 10 00    	mov    0x10aa34,%ecx
  10223b:	c7 41 10 00 00 00 00 	movl   $0x0,0x10(%ecx)
  if(id != ioapicid)
    cprintf("ioapicinit: id isn't equal to ioapicid; not a MP\n");

  // Mark all interrupts edge-triggered, active high, disabled,
  // and not routed to any CPUs.
  for(i = 0; i <= maxintr; i++){
  102242:	7d c4                	jge    102208 <ioapicinit+0x78>
    ioapicwrite(REG_TABLE+2*i, INT_DISABLED | (T_IRQ0 + i));
    ioapicwrite(REG_TABLE+2*i+1, 0);
  }
}
  102244:	83 c4 10             	add    $0x10,%esp
  102247:	5b                   	pop    %ebx
  102248:	5e                   	pop    %esi
  102249:	5d                   	pop    %ebp
  10224a:	c3                   	ret    
  10224b:	90                   	nop
  10224c:	90                   	nop
  10224d:	90                   	nop
  10224e:	90                   	nop
  10224f:	90                   	nop

00102250 <kalloc>:
// Allocate one 4096-byte page of physical memory.
// Returns a pointer that the kernel can use.
// Returns 0 if the memory cannot be allocated.
char*
kalloc()
{
  102250:	55                   	push   %ebp
  102251:	89 e5                	mov    %esp,%ebp
  102253:	53                   	push   %ebx
  102254:	83 ec 14             	sub    $0x14,%esp
  struct run *r;

  acquire(&kmem.lock);
  102257:	c7 04 24 40 aa 10 00 	movl   $0x10aa40,(%esp)
  10225e:	e8 bd 18 00 00       	call   103b20 <acquire>
  r = kmem.freelist;
  102263:	8b 1d 74 aa 10 00    	mov    0x10aa74,%ebx
  if(r)
  102269:	85 db                	test   %ebx,%ebx
  10226b:	74 07                	je     102274 <kalloc+0x24>
    kmem.freelist = r->next;
  10226d:	8b 03                	mov    (%ebx),%eax
  10226f:	a3 74 aa 10 00       	mov    %eax,0x10aa74
  release(&kmem.lock);
  102274:	c7 04 24 40 aa 10 00 	movl   $0x10aa40,(%esp)
  10227b:	e8 50 18 00 00       	call   103ad0 <release>
  return (char*) r;
}
  102280:	89 d8                	mov    %ebx,%eax
  102282:	83 c4 14             	add    $0x14,%esp
  102285:	5b                   	pop    %ebx
  102286:	5d                   	pop    %ebp
  102287:	c3                   	ret    
  102288:	90                   	nop
  102289:	8d b4 26 00 00 00 00 	lea    0x0(%esi,%eiz,1),%esi

00102290 <kfree>:
// which normally should have been returned by a
// call to kalloc().  (The exception is when
// initializing the allocator; see kinit above.)
void
kfree(char *v)
{
  102290:	55                   	push   %ebp
  102291:	89 e5                	mov    %esp,%ebp
  102293:	53                   	push   %ebx
  102294:	83 ec 14             	sub    $0x14,%esp
  102297:	8b 5d 08             	mov    0x8(%ebp),%ebx
  struct run *r;

  if(((uint) v) % PGSIZE || (uint)v < 1024*1024 || (uint)v >= PHYSTOP) 
  10229a:	f7 c3 ff 0f 00 00    	test   $0xfff,%ebx
  1022a0:	75 52                	jne    1022f4 <kfree+0x64>
  1022a2:	81 fb ff ff 0f 00    	cmp    $0xfffff,%ebx
  1022a8:	76 4a                	jbe    1022f4 <kfree+0x64>
  1022aa:	81 fb ff ff ff 00    	cmp    $0xffffff,%ebx
  1022b0:	77 42                	ja     1022f4 <kfree+0x64>
    panic("kfree");

  // Fill with junk to catch dangling refs.
  memset(v, 1, PGSIZE);
  1022b2:	89 1c 24             	mov    %ebx,(%esp)
  1022b5:	c7 44 24 08 00 10 00 	movl   $0x1000,0x8(%esp)
  1022bc:	00 
  1022bd:	c7 44 24 04 01 00 00 	movl   $0x1,0x4(%esp)
  1022c4:	00 
  1022c5:	e8 f6 18 00 00       	call   103bc0 <memset>

  acquire(&kmem.lock);
  1022ca:	c7 04 24 40 aa 10 00 	movl   $0x10aa40,(%esp)
  1022d1:	e8 4a 18 00 00       	call   103b20 <acquire>
  r = (struct run *) v;
  r->next = kmem.freelist;
  1022d6:	a1 74 aa 10 00       	mov    0x10aa74,%eax
  1022db:	89 03                	mov    %eax,(%ebx)
  kmem.freelist = r;
  1022dd:	89 1d 74 aa 10 00    	mov    %ebx,0x10aa74
  release(&kmem.lock);
  1022e3:	c7 45 08 40 aa 10 00 	movl   $0x10aa40,0x8(%ebp)
}
  1022ea:	83 c4 14             	add    $0x14,%esp
  1022ed:	5b                   	pop    %ebx
  1022ee:	5d                   	pop    %ebp

  acquire(&kmem.lock);
  r = (struct run *) v;
  r->next = kmem.freelist;
  kmem.freelist = r;
  release(&kmem.lock);
  1022ef:	e9 dc 17 00 00       	jmp    103ad0 <release>
kfree(char *v)
{
  struct run *r;

  if(((uint) v) % PGSIZE || (uint)v < 1024*1024 || (uint)v >= PHYSTOP) 
    panic("kfree");
  1022f4:	c7 04 24 76 66 10 00 	movl   $0x106676,(%esp)
  1022fb:	e8 b0 e5 ff ff       	call   1008b0 <panic>

00102300 <kinit>:
} kmem;

// Initialize free list of physical pages.
void
kinit(void)
{
  102300:	55                   	push   %ebp
  102301:	89 e5                	mov    %esp,%ebp
  102303:	53                   	push   %ebx
  extern char end[];

  initlock(&kmem.lock, "kmem");
  char *p = (char*)PGROUNDUP((uint)end);
  102304:	bb 23 e9 10 00       	mov    $0x10e923,%ebx
} kmem;

// Initialize free list of physical pages.
void
kinit(void)
{
  102309:	83 ec 14             	sub    $0x14,%esp
  extern char end[];

  initlock(&kmem.lock, "kmem");
  char *p = (char*)PGROUNDUP((uint)end);
  10230c:	81 e3 00 f0 ff ff    	and    $0xfffff000,%ebx
void
kinit(void)
{
  extern char end[];

  initlock(&kmem.lock, "kmem");
  102312:	c7 44 24 04 7c 66 10 	movl   $0x10667c,0x4(%esp)
  102319:	00 
  10231a:	c7 04 24 40 aa 10 00 	movl   $0x10aa40,(%esp)
  102321:	e8 6a 16 00 00       	call   103990 <initlock>
  char *p = (char*)PGROUNDUP((uint)end);
  for( ; p + PGSIZE - 1 < (char*) PHYSTOP; p += PGSIZE)
  102326:	8d 83 ff 0f 00 00    	lea    0xfff(%ebx),%eax
  10232c:	3d ff ff ff 00       	cmp    $0xffffff,%eax
  102331:	77 20                	ja     102353 <kinit+0x53>
  102333:	90                   	nop
  102334:	8d 74 26 00          	lea    0x0(%esi,%eiz,1),%esi
    kfree(p);
  102338:	89 1c 24             	mov    %ebx,(%esp)
{
  extern char end[];

  initlock(&kmem.lock, "kmem");
  char *p = (char*)PGROUNDUP((uint)end);
  for( ; p + PGSIZE - 1 < (char*) PHYSTOP; p += PGSIZE)
  10233b:	81 c3 00 10 00 00    	add    $0x1000,%ebx
    kfree(p);
  102341:	e8 4a ff ff ff       	call   102290 <kfree>
{
  extern char end[];

  initlock(&kmem.lock, "kmem");
  char *p = (char*)PGROUNDUP((uint)end);
  for( ; p + PGSIZE - 1 < (char*) PHYSTOP; p += PGSIZE)
  102346:	8d 83 ff 0f 00 00    	lea    0xfff(%ebx),%eax
  10234c:	3d ff ff ff 00       	cmp    $0xffffff,%eax
  102351:	76 e5                	jbe    102338 <kinit+0x38>
    kfree(p);
}
  102353:	83 c4 14             	add    $0x14,%esp
  102356:	5b                   	pop    %ebx
  102357:	5d                   	pop    %ebp
  102358:	c3                   	ret    
  102359:	90                   	nop
  10235a:	90                   	nop
  10235b:	90                   	nop
  10235c:	90                   	nop
  10235d:	90                   	nop
  10235e:	90                   	nop
  10235f:	90                   	nop

00102360 <kbdgetc>:
#include "defs.h"
#include "kbd.h"

int
kbdgetc(void)
{
  102360:	55                   	push   %ebp
static inline uchar
inb(ushort port)
{
  uchar data;

  asm volatile("in %1,%0" : "=a" (data) : "d" (port));
  102361:	ba 64 00 00 00       	mov    $0x64,%edx
  102366:	89 e5                	mov    %esp,%ebp
  102368:	ec                   	in     (%dx),%al
  102369:	89 c2                	mov    %eax,%edx
    normalmap, shiftmap, ctlmap, ctlmap
  };
  uint st, data, c;

  st = inb(KBSTATP);
  if((st & KBS_DIB) == 0)
  10236b:	b8 ff ff ff ff       	mov    $0xffffffff,%eax
  102370:	83 e2 01             	and    $0x1,%edx
  102373:	74 3e                	je     1023b3 <kbdgetc+0x53>
  102375:	ba 60 00 00 00       	mov    $0x60,%edx
  10237a:	ec                   	in     (%dx),%al
    return -1;
  data = inb(KBDATAP);
  10237b:	0f b6 c0             	movzbl %al,%eax

  if(data == 0xE0){
  10237e:	3d e0 00 00 00       	cmp    $0xe0,%eax
  102383:	0f 84 7f 00 00 00    	je     102408 <kbdgetc+0xa8>
    shift |= E0ESC;
    return 0;
  } else if(data & 0x80){
  102389:	84 c0                	test   %al,%al
  10238b:	79 2b                	jns    1023b8 <kbdgetc+0x58>
    // Key released
    data = (shift & E0ESC ? data : data & 0x7F);
  10238d:	8b 15 3c 78 10 00    	mov    0x10783c,%edx
  102393:	f6 c2 40             	test   $0x40,%dl
  102396:	75 03                	jne    10239b <kbdgetc+0x3b>
  102398:	83 e0 7f             	and    $0x7f,%eax
    shift &= ~(shiftcode[data] | E0ESC);
  10239b:	0f b6 80 a0 66 10 00 	movzbl 0x1066a0(%eax),%eax
  1023a2:	83 c8 40             	or     $0x40,%eax
  1023a5:	0f b6 c0             	movzbl %al,%eax
  1023a8:	f7 d0                	not    %eax
  1023aa:	21 d0                	and    %edx,%eax
  1023ac:	a3 3c 78 10 00       	mov    %eax,0x10783c
  1023b1:	31 c0                	xor    %eax,%eax
      c += 'A' - 'a';
    else if('A' <= c && c <= 'Z')
      c += 'a' - 'A';
  }
  return c;
}
  1023b3:	5d                   	pop    %ebp
  1023b4:	c3                   	ret    
  1023b5:	8d 76 00             	lea    0x0(%esi),%esi
  } else if(data & 0x80){
    // Key released
    data = (shift & E0ESC ? data : data & 0x7F);
    shift &= ~(shiftcode[data] | E0ESC);
    return 0;
  } else if(shift & E0ESC){
  1023b8:	8b 0d 3c 78 10 00    	mov    0x10783c,%ecx
  1023be:	f6 c1 40             	test   $0x40,%cl
  1023c1:	74 05                	je     1023c8 <kbdgetc+0x68>
    // Last character was an E0 escape; or with 0x80
    data |= 0x80;
  1023c3:	0c 80                	or     $0x80,%al
    shift &= ~E0ESC;
  1023c5:	83 e1 bf             	and    $0xffffffbf,%ecx
  }

  shift |= shiftcode[data];
  shift ^= togglecode[data];
  1023c8:	0f b6 90 a0 66 10 00 	movzbl 0x1066a0(%eax),%edx
  1023cf:	09 ca                	or     %ecx,%edx
  1023d1:	0f b6 88 a0 67 10 00 	movzbl 0x1067a0(%eax),%ecx
  1023d8:	31 ca                	xor    %ecx,%edx
  c = charcode[shift & (CTL | SHIFT)][data];
  1023da:	89 d1                	mov    %edx,%ecx
  1023dc:	83 e1 03             	and    $0x3,%ecx
  1023df:	8b 0c 8d a0 68 10 00 	mov    0x1068a0(,%ecx,4),%ecx
    data |= 0x80;
    shift &= ~E0ESC;
  }

  shift |= shiftcode[data];
  shift ^= togglecode[data];
  1023e6:	89 15 3c 78 10 00    	mov    %edx,0x10783c
  c = charcode[shift & (CTL | SHIFT)][data];
  if(shift & CAPSLOCK){
  1023ec:	83 e2 08             	and    $0x8,%edx
    shift &= ~E0ESC;
  }

  shift |= shiftcode[data];
  shift ^= togglecode[data];
  c = charcode[shift & (CTL | SHIFT)][data];
  1023ef:	0f b6 04 01          	movzbl (%ecx,%eax,1),%eax
  if(shift & CAPSLOCK){
  1023f3:	74 be                	je     1023b3 <kbdgetc+0x53>
    if('a' <= c && c <= 'z')
  1023f5:	8d 50 9f             	lea    -0x61(%eax),%edx
  1023f8:	83 fa 19             	cmp    $0x19,%edx
  1023fb:	77 1b                	ja     102418 <kbdgetc+0xb8>
      c += 'A' - 'a';
  1023fd:	83 e8 20             	sub    $0x20,%eax
    else if('A' <= c && c <= 'Z')
      c += 'a' - 'A';
  }
  return c;
}
  102400:	5d                   	pop    %ebp
  102401:	c3                   	ret    
  102402:	8d b6 00 00 00 00    	lea    0x0(%esi),%esi
  if((st & KBS_DIB) == 0)
    return -1;
  data = inb(KBDATAP);

  if(data == 0xE0){
    shift |= E0ESC;
  102408:	30 c0                	xor    %al,%al
  10240a:	83 0d 3c 78 10 00 40 	orl    $0x40,0x10783c
      c += 'A' - 'a';
    else if('A' <= c && c <= 'Z')
      c += 'a' - 'A';
  }
  return c;
}
  102411:	5d                   	pop    %ebp
  102412:	c3                   	ret    
  102413:	90                   	nop
  102414:	8d 74 26 00          	lea    0x0(%esi,%eiz,1),%esi
  shift ^= togglecode[data];
  c = charcode[shift & (CTL | SHIFT)][data];
  if(shift & CAPSLOCK){
    if('a' <= c && c <= 'z')
      c += 'A' - 'a';
    else if('A' <= c && c <= 'Z')
  102418:	8d 50 bf             	lea    -0x41(%eax),%edx
  10241b:	83 fa 19             	cmp    $0x19,%edx
  10241e:	77 93                	ja     1023b3 <kbdgetc+0x53>
      c += 'a' - 'A';
  102420:	83 c0 20             	add    $0x20,%eax
  }
  return c;
}
  102423:	5d                   	pop    %ebp
  102424:	c3                   	ret    
  102425:	8d 74 26 00          	lea    0x0(%esi,%eiz,1),%esi
  102429:	8d bc 27 00 00 00 00 	lea    0x0(%edi,%eiz,1),%edi

00102430 <kbdintr>:

void
kbdintr(void)
{
  102430:	55                   	push   %ebp
  102431:	89 e5                	mov    %esp,%ebp
  102433:	83 ec 18             	sub    $0x18,%esp
  consoleintr(kbdgetc);
  102436:	c7 04 24 60 23 10 00 	movl   $0x102360,(%esp)
  10243d:	e8 de e2 ff ff       	call   100720 <consoleintr>
}
  102442:	c9                   	leave  
  102443:	c3                   	ret    
  102444:	90                   	nop
  102445:	90                   	nop
  102446:	90                   	nop
  102447:	90                   	nop
  102448:	90                   	nop
  102449:	90                   	nop
  10244a:	90                   	nop
  10244b:	90                   	nop
  10244c:	90                   	nop
  10244d:	90                   	nop
  10244e:	90                   	nop
  10244f:	90                   	nop

00102450 <lapiceoi>:

// Acknowledge interrupt.
void
lapiceoi(void)
{
  if(lapic)
  102450:	a1 78 aa 10 00       	mov    0x10aa78,%eax
}

// Acknowledge interrupt.
void
lapiceoi(void)
{
  102455:	55                   	push   %ebp
  102456:	89 e5                	mov    %esp,%ebp
  if(lapic)
  102458:	85 c0                	test   %eax,%eax
  10245a:	74 12                	je     10246e <lapiceoi+0x1e>
volatile uint *lapic;  // Initialized in mp.c

static void
lapicw(int index, int value)
{
  lapic[index] = value;
  10245c:	c7 80 b0 00 00 00 00 	movl   $0x0,0xb0(%eax)
  102463:	00 00 00 
  lapic[ID];  // wait for write to finish, by reading
  102466:	a1 78 aa 10 00       	mov    0x10aa78,%eax
  10246b:	8b 40 20             	mov    0x20(%eax),%eax
void
lapiceoi(void)
{
  if(lapic)
    lapicw(EOI, 0);
}
  10246e:	5d                   	pop    %ebp
  10246f:	c3                   	ret    

00102470 <microdelay>:

// Spin for a given number of microseconds.
// On real hardware would want to tune this dynamically.
void
microdelay(int us)
{
  102470:	55                   	push   %ebp
  102471:	89 e5                	mov    %esp,%ebp
}
  102473:	5d                   	pop    %ebp
  102474:	c3                   	ret    
  102475:	8d 74 26 00          	lea    0x0(%esi,%eiz,1),%esi
  102479:	8d bc 27 00 00 00 00 	lea    0x0(%edi,%eiz,1),%edi

00102480 <lapicstartap>:

// Start additional processor running bootstrap code at addr.
// See Appendix B of MultiProcessor Specification.
void
lapicstartap(uchar apicid, uint addr)
{
  102480:	55                   	push   %ebp
}

static inline void
outb(ushort port, uchar data)
{
  asm volatile("out %0,%1" : : "a" (data), "d" (port));
  102481:	ba 70 00 00 00       	mov    $0x70,%edx
  102486:	89 e5                	mov    %esp,%ebp
  102488:	b8 0f 00 00 00       	mov    $0xf,%eax
  10248d:	53                   	push   %ebx
  10248e:	8b 4d 0c             	mov    0xc(%ebp),%ecx
  102491:	0f b6 5d 08          	movzbl 0x8(%ebp),%ebx
  102495:	ee                   	out    %al,(%dx)
  102496:	b8 0a 00 00 00       	mov    $0xa,%eax
  10249b:	b2 71                	mov    $0x71,%dl
  10249d:	ee                   	out    %al,(%dx)
  // the AP startup code prior to the [universal startup algorithm]."
  outb(IO_RTC, 0xF);  // offset 0xF is shutdown code
  outb(IO_RTC+1, 0x0A);
  wrv = (ushort*)(0x40<<4 | 0x67);  // Warm reset vector
  wrv[0] = 0;
  wrv[1] = addr >> 4;
  10249e:	89 c8                	mov    %ecx,%eax
  1024a0:	c1 e8 04             	shr    $0x4,%eax
  1024a3:	66 a3 69 04 00 00    	mov    %ax,0x469
volatile uint *lapic;  // Initialized in mp.c

static void
lapicw(int index, int value)
{
  lapic[index] = value;
  1024a9:	a1 78 aa 10 00       	mov    0x10aa78,%eax
  1024ae:	c1 e3 18             	shl    $0x18,%ebx
  // and the warm reset vector (DWORD based at 40:67) to point at
  // the AP startup code prior to the [universal startup algorithm]."
  outb(IO_RTC, 0xF);  // offset 0xF is shutdown code
  outb(IO_RTC+1, 0x0A);
  wrv = (ushort*)(0x40<<4 | 0x67);  // Warm reset vector
  wrv[0] = 0;
  1024b1:	66 c7 05 67 04 00 00 	movw   $0x0,0x467
  1024b8:	00 00 

static void
lapicw(int index, int value)
{
  lapic[index] = value;
  lapic[ID];  // wait for write to finish, by reading
  1024ba:	c1 e9 0c             	shr    $0xc,%ecx
  1024bd:	80 cd 06             	or     $0x6,%ch
volatile uint *lapic;  // Initialized in mp.c

static void
lapicw(int index, int value)
{
  lapic[index] = value;
  1024c0:	89 98 10 03 00 00    	mov    %ebx,0x310(%eax)
  lapic[ID];  // wait for write to finish, by reading
  1024c6:	a1 78 aa 10 00       	mov    0x10aa78,%eax
  1024cb:	8b 50 20             	mov    0x20(%eax),%edx
volatile uint *lapic;  // Initialized in mp.c

static void
lapicw(int index, int value)
{
  lapic[index] = value;
  1024ce:	c7 80 00 03 00 00 00 	movl   $0xc500,0x300(%eax)
  1024d5:	c5 00 00 
  lapic[ID];  // wait for write to finish, by reading
  1024d8:	a1 78 aa 10 00       	mov    0x10aa78,%eax
  1024dd:	8b 50 20             	mov    0x20(%eax),%edx
volatile uint *lapic;  // Initialized in mp.c

static void
lapicw(int index, int value)
{
  lapic[index] = value;
  1024e0:	c7 80 00 03 00 00 00 	movl   $0x8500,0x300(%eax)
  1024e7:	85 00 00 
  lapic[ID];  // wait for write to finish, by reading
  1024ea:	a1 78 aa 10 00       	mov    0x10aa78,%eax
  1024ef:	8b 50 20             	mov    0x20(%eax),%edx
volatile uint *lapic;  // Initialized in mp.c

static void
lapicw(int index, int value)
{
  lapic[index] = value;
  1024f2:	89 98 10 03 00 00    	mov    %ebx,0x310(%eax)
  lapic[ID];  // wait for write to finish, by reading
  1024f8:	a1 78 aa 10 00       	mov    0x10aa78,%eax
  1024fd:	8b 50 20             	mov    0x20(%eax),%edx
volatile uint *lapic;  // Initialized in mp.c

static void
lapicw(int index, int value)
{
  lapic[index] = value;
  102500:	89 88 00 03 00 00    	mov    %ecx,0x300(%eax)
  lapic[ID];  // wait for write to finish, by reading
  102506:	a1 78 aa 10 00       	mov    0x10aa78,%eax
  10250b:	8b 50 20             	mov    0x20(%eax),%edx
volatile uint *lapic;  // Initialized in mp.c

static void
lapicw(int index, int value)
{
  lapic[index] = value;
  10250e:	89 98 10 03 00 00    	mov    %ebx,0x310(%eax)
  lapic[ID];  // wait for write to finish, by reading
  102514:	a1 78 aa 10 00       	mov    0x10aa78,%eax
  102519:	8b 50 20             	mov    0x20(%eax),%edx
volatile uint *lapic;  // Initialized in mp.c

static void
lapicw(int index, int value)
{
  lapic[index] = value;
  10251c:	89 88 00 03 00 00    	mov    %ecx,0x300(%eax)
  lapic[ID];  // wait for write to finish, by reading
  102522:	a1 78 aa 10 00       	mov    0x10aa78,%eax
  for(i = 0; i < 2; i++){
    lapicw(ICRHI, apicid<<24);
    lapicw(ICRLO, STARTUP | (addr>>12));
    microdelay(200);
  }
}
  102527:	5b                   	pop    %ebx
  102528:	5d                   	pop    %ebp

static void
lapicw(int index, int value)
{
  lapic[index] = value;
  lapic[ID];  // wait for write to finish, by reading
  102529:	8b 40 20             	mov    0x20(%eax),%eax
  for(i = 0; i < 2; i++){
    lapicw(ICRHI, apicid<<24);
    lapicw(ICRLO, STARTUP | (addr>>12));
    microdelay(200);
  }
}
  10252c:	c3                   	ret    
  10252d:	8d 76 00             	lea    0x0(%esi),%esi

00102530 <cpunum>:
  lapicw(TPR, 0);
}

int
cpunum(void)
{
  102530:	55                   	push   %ebp
  102531:	89 e5                	mov    %esp,%ebp
  102533:	83 ec 18             	sub    $0x18,%esp

static inline uint
readeflags(void)
{
  uint eflags;
  asm volatile("pushfl; popl %0" : "=r" (eflags));
  102536:	9c                   	pushf  
  102537:	58                   	pop    %eax
  // Cannot call cpu when interrupts are enabled:
  // result not guaranteed to last long enough to be used!
  // Would prefer to panic but even printing is chancy here:
  // almost everything, including cprintf and panic, calls cpu,
  // often indirectly through acquire and release.
  if(readeflags()&FL_IF){
  102538:	f6 c4 02             	test   $0x2,%ah
  10253b:	74 12                	je     10254f <cpunum+0x1f>
    static int n;
    if(n++ == 0)
  10253d:	a1 40 78 10 00       	mov    0x107840,%eax
  102542:	8d 50 01             	lea    0x1(%eax),%edx
  102545:	85 c0                	test   %eax,%eax
  102547:	89 15 40 78 10 00    	mov    %edx,0x107840
  10254d:	74 19                	je     102568 <cpunum+0x38>
      cprintf("cpu called from %x with interrupts enabled\n",
        __builtin_return_address(0));
  }

  if(lapic)
  10254f:	8b 15 78 aa 10 00    	mov    0x10aa78,%edx
  102555:	31 c0                	xor    %eax,%eax
  102557:	85 d2                	test   %edx,%edx
  102559:	74 06                	je     102561 <cpunum+0x31>
    return lapic[ID]>>24;
  10255b:	8b 42 20             	mov    0x20(%edx),%eax
  10255e:	c1 e8 18             	shr    $0x18,%eax
  return 0;
}
  102561:	c9                   	leave  
  102562:	c3                   	ret    
  102563:	90                   	nop
  102564:	8d 74 26 00          	lea    0x0(%esi,%eiz,1),%esi
  // almost everything, including cprintf and panic, calls cpu,
  // often indirectly through acquire and release.
  if(readeflags()&FL_IF){
    static int n;
    if(n++ == 0)
      cprintf("cpu called from %x with interrupts enabled\n",
  102568:	8b 45 04             	mov    0x4(%ebp),%eax
  10256b:	c7 04 24 b0 68 10 00 	movl   $0x1068b0,(%esp)
  102572:	89 44 24 04          	mov    %eax,0x4(%esp)
  102576:	e8 45 df ff ff       	call   1004c0 <cprintf>
  10257b:	eb d2                	jmp    10254f <cpunum+0x1f>
  10257d:	8d 76 00             	lea    0x0(%esi),%esi

00102580 <lapicinit>:
  lapic[ID];  // wait for write to finish, by reading
}

void
lapicinit(int c)
{
  102580:	55                   	push   %ebp
  102581:	89 e5                	mov    %esp,%ebp
  102583:	83 ec 18             	sub    $0x18,%esp
  cprintf("lapicinit: %d 0x%x\n", c, lapic);
  102586:	a1 78 aa 10 00       	mov    0x10aa78,%eax
  10258b:	c7 04 24 dc 68 10 00 	movl   $0x1068dc,(%esp)
  102592:	89 44 24 08          	mov    %eax,0x8(%esp)
  102596:	8b 45 08             	mov    0x8(%ebp),%eax
  102599:	89 44 24 04          	mov    %eax,0x4(%esp)
  10259d:	e8 1e df ff ff       	call   1004c0 <cprintf>
  if(!lapic) 
  1025a2:	a1 78 aa 10 00       	mov    0x10aa78,%eax
  1025a7:	85 c0                	test   %eax,%eax
  1025a9:	0f 84 0a 01 00 00    	je     1026b9 <lapicinit+0x139>
volatile uint *lapic;  // Initialized in mp.c

static void
lapicw(int index, int value)
{
  lapic[index] = value;
  1025af:	c7 80 f0 00 00 00 3f 	movl   $0x13f,0xf0(%eax)
  1025b6:	01 00 00 
  lapic[ID];  // wait for write to finish, by reading
  1025b9:	a1 78 aa 10 00       	mov    0x10aa78,%eax
  1025be:	8b 50 20             	mov    0x20(%eax),%edx
volatile uint *lapic;  // Initialized in mp.c

static void
lapicw(int index, int value)
{
  lapic[index] = value;
  1025c1:	c7 80 e0 03 00 00 0b 	movl   $0xb,0x3e0(%eax)
  1025c8:	00 00 00 
  lapic[ID];  // wait for write to finish, by reading
  1025cb:	a1 78 aa 10 00       	mov    0x10aa78,%eax
  1025d0:	8b 50 20             	mov    0x20(%eax),%edx
volatile uint *lapic;  // Initialized in mp.c

static void
lapicw(int index, int value)
{
  lapic[index] = value;
  1025d3:	c7 80 20 03 00 00 20 	movl   $0x20020,0x320(%eax)
  1025da:	00 02 00 
  lapic[ID];  // wait for write to finish, by reading
  1025dd:	a1 78 aa 10 00       	mov    0x10aa78,%eax
  1025e2:	8b 50 20             	mov    0x20(%eax),%edx
volatile uint *lapic;  // Initialized in mp.c

static void
lapicw(int index, int value)
{
  lapic[index] = value;
  1025e5:	c7 80 80 03 00 00 80 	movl   $0x989680,0x380(%eax)
  1025ec:	96 98 00 
  lapic[ID];  // wait for write to finish, by reading
  1025ef:	a1 78 aa 10 00       	mov    0x10aa78,%eax
  1025f4:	8b 50 20             	mov    0x20(%eax),%edx
volatile uint *lapic;  // Initialized in mp.c

static void
lapicw(int index, int value)
{
  lapic[index] = value;
  1025f7:	c7 80 50 03 00 00 00 	movl   $0x10000,0x350(%eax)
  1025fe:	00 01 00 
  lapic[ID];  // wait for write to finish, by reading
  102601:	a1 78 aa 10 00       	mov    0x10aa78,%eax
  102606:	8b 50 20             	mov    0x20(%eax),%edx
volatile uint *lapic;  // Initialized in mp.c

static void
lapicw(int index, int value)
{
  lapic[index] = value;
  102609:	c7 80 60 03 00 00 00 	movl   $0x10000,0x360(%eax)
  102610:	00 01 00 
  lapic[ID];  // wait for write to finish, by reading
  102613:	a1 78 aa 10 00       	mov    0x10aa78,%eax
  102618:	8b 50 20             	mov    0x20(%eax),%edx
  lapicw(LINT0, MASKED);
  lapicw(LINT1, MASKED);

  // Disable performance counter overflow interrupts
  // on machines that provide that interrupt entry.
  if(((lapic[VER]>>16) & 0xFF) >= 4)
  10261b:	8b 50 30             	mov    0x30(%eax),%edx
  10261e:	c1 ea 10             	shr    $0x10,%edx
  102621:	80 fa 03             	cmp    $0x3,%dl
  102624:	0f 87 96 00 00 00    	ja     1026c0 <lapicinit+0x140>
volatile uint *lapic;  // Initialized in mp.c

static void
lapicw(int index, int value)
{
  lapic[index] = value;
  10262a:	c7 80 70 03 00 00 33 	movl   $0x33,0x370(%eax)
  102631:	00 00 00 
  lapic[ID];  // wait for write to finish, by reading
  102634:	a1 78 aa 10 00       	mov    0x10aa78,%eax
  102639:	8b 50 20             	mov    0x20(%eax),%edx
volatile uint *lapic;  // Initialized in mp.c

static void
lapicw(int index, int value)
{
  lapic[index] = value;
  10263c:	c7 80 80 02 00 00 00 	movl   $0x0,0x280(%eax)
  102643:	00 00 00 
  lapic[ID];  // wait for write to finish, by reading
  102646:	a1 78 aa 10 00       	mov    0x10aa78,%eax
  10264b:	8b 50 20             	mov    0x20(%eax),%edx
volatile uint *lapic;  // Initialized in mp.c

static void
lapicw(int index, int value)
{
  lapic[index] = value;
  10264e:	c7 80 80 02 00 00 00 	movl   $0x0,0x280(%eax)
  102655:	00 00 00 
  lapic[ID];  // wait for write to finish, by reading
  102658:	a1 78 aa 10 00       	mov    0x10aa78,%eax
  10265d:	8b 50 20             	mov    0x20(%eax),%edx
volatile uint *lapic;  // Initialized in mp.c

static void
lapicw(int index, int value)
{
  lapic[index] = value;
  102660:	c7 80 b0 00 00 00 00 	movl   $0x0,0xb0(%eax)
  102667:	00 00 00 
  lapic[ID];  // wait for write to finish, by reading
  10266a:	a1 78 aa 10 00       	mov    0x10aa78,%eax
  10266f:	8b 50 20             	mov    0x20(%eax),%edx
volatile uint *lapic;  // Initialized in mp.c

static void
lapicw(int index, int value)
{
  lapic[index] = value;
  102672:	c7 80 10 03 00 00 00 	movl   $0x0,0x310(%eax)
  102679:	00 00 00 
  lapic[ID];  // wait for write to finish, by reading
  10267c:	a1 78 aa 10 00       	mov    0x10aa78,%eax
  102681:	8b 50 20             	mov    0x20(%eax),%edx
volatile uint *lapic;  // Initialized in mp.c

static void
lapicw(int index, int value)
{
  lapic[index] = value;
  102684:	c7 80 00 03 00 00 00 	movl   $0x88500,0x300(%eax)
  10268b:	85 08 00 
  lapic[ID];  // wait for write to finish, by reading
  10268e:	8b 0d 78 aa 10 00    	mov    0x10aa78,%ecx
  102694:	8b 41 20             	mov    0x20(%ecx),%eax
  102697:	8d 91 00 03 00 00    	lea    0x300(%ecx),%edx
  10269d:	8d 76 00             	lea    0x0(%esi),%esi
  lapicw(EOI, 0);

  // Send an Init Level De-Assert to synchronise arbitration ID's.
  lapicw(ICRHI, 0);
  lapicw(ICRLO, BCAST | INIT | LEVEL);
  while(lapic[ICRLO] & DELIVS)
  1026a0:	8b 02                	mov    (%edx),%eax
  1026a2:	f6 c4 10             	test   $0x10,%ah
  1026a5:	75 f9                	jne    1026a0 <lapicinit+0x120>
volatile uint *lapic;  // Initialized in mp.c

static void
lapicw(int index, int value)
{
  lapic[index] = value;
  1026a7:	c7 81 80 00 00 00 00 	movl   $0x0,0x80(%ecx)
  1026ae:	00 00 00 
  lapic[ID];  // wait for write to finish, by reading
  1026b1:	a1 78 aa 10 00       	mov    0x10aa78,%eax
  1026b6:	8b 40 20             	mov    0x20(%eax),%eax
  while(lapic[ICRLO] & DELIVS)
    ;

  // Enable interrupts on the APIC (but not on the processor).
  lapicw(TPR, 0);
}
  1026b9:	c9                   	leave  
  1026ba:	c3                   	ret    
  1026bb:	90                   	nop
  1026bc:	8d 74 26 00          	lea    0x0(%esi,%eiz,1),%esi
volatile uint *lapic;  // Initialized in mp.c

static void
lapicw(int index, int value)
{
  lapic[index] = value;
  1026c0:	c7 80 40 03 00 00 00 	movl   $0x10000,0x340(%eax)
  1026c7:	00 01 00 
  lapic[ID];  // wait for write to finish, by reading
  1026ca:	a1 78 aa 10 00       	mov    0x10aa78,%eax
  1026cf:	8b 50 20             	mov    0x20(%eax),%edx
  1026d2:	e9 53 ff ff ff       	jmp    10262a <lapicinit+0xaa>
  1026d7:	90                   	nop
  1026d8:	90                   	nop
  1026d9:	90                   	nop
  1026da:	90                   	nop
  1026db:	90                   	nop
  1026dc:	90                   	nop
  1026dd:	90                   	nop
  1026de:	90                   	nop
  1026df:	90                   	nop

001026e0 <mpmain>:
// Common CPU setup code.
// Bootstrap CPU comes here from mainc().
// Other CPUs jump here from bootother.S.
static void
mpmain(void)
{
  1026e0:	55                   	push   %ebp
  1026e1:	89 e5                	mov    %esp,%ebp
  1026e3:	53                   	push   %ebx
  1026e4:	83 ec 14             	sub    $0x14,%esp
  if(cpunum() != mpbcpu()) {
  1026e7:	e8 44 fe ff ff       	call   102530 <cpunum>
  1026ec:	89 c3                	mov    %eax,%ebx
  1026ee:	e8 ed 01 00 00       	call   1028e0 <mpbcpu>
  1026f3:	39 c3                	cmp    %eax,%ebx
  1026f5:	74 16                	je     10270d <mpmain+0x2d>
    ksegment();
  1026f7:	e8 64 3c 00 00       	call   106360 <ksegment>
  1026fc:	8d 74 26 00          	lea    0x0(%esi,%eiz,1),%esi
    lapicinit(cpunum());
  102700:	e8 2b fe ff ff       	call   102530 <cpunum>
  102705:	89 04 24             	mov    %eax,(%esp)
  102708:	e8 73 fe ff ff       	call   102580 <lapicinit>
  }
  vmenable();        // turn on paging
  10270d:	e8 4e 35 00 00       	call   105c60 <vmenable>
  cprintf("cpu%d: starting\n", cpu->id);
  102712:	65 a1 00 00 00 00    	mov    %gs:0x0,%eax
  102718:	0f b6 00             	movzbl (%eax),%eax
  10271b:	c7 04 24 f0 68 10 00 	movl   $0x1068f0,(%esp)
  102722:	89 44 24 04          	mov    %eax,0x4(%esp)
  102726:	e8 95 dd ff ff       	call   1004c0 <cprintf>
  idtinit();       // load idt register
  10272b:	e8 30 26 00 00       	call   104d60 <idtinit>
  xchg(&cpu->booted, 1);
  102730:	65 8b 15 00 00 00 00 	mov    %gs:0x0,%edx
xchg(volatile uint *addr, uint newval)
{
  uint result;
  
  // The + in "+m" denotes a read-modify-write operand.
  asm volatile("lock; xchgl %0, %1" :
  102737:	b8 01 00 00 00       	mov    $0x1,%eax
  10273c:	f0 87 82 a8 00 00 00 	lock xchg %eax,0xa8(%edx)
  scheduler();     // start running processes
  102743:	e8 38 0b 00 00       	call   103280 <scheduler>
  102748:	90                   	nop
  102749:	8d b4 26 00 00 00 00 	lea    0x0(%esi,%eiz,1),%esi

00102750 <mainc>:
  panic("jkstack");
}

void
mainc(void)
{
  102750:	55                   	push   %ebp
  102751:	89 e5                	mov    %esp,%ebp
  102753:	53                   	push   %ebx
  102754:	83 ec 14             	sub    $0x14,%esp
  cprintf("\ncpu%d: starting xv6\n\n", cpu->id);
  102757:	65 a1 00 00 00 00    	mov    %gs:0x0,%eax
  10275d:	0f b6 00             	movzbl (%eax),%eax
  102760:	c7 04 24 01 69 10 00 	movl   $0x106901,(%esp)
  102767:	89 44 24 04          	mov    %eax,0x4(%esp)
  10276b:	e8 50 dd ff ff       	call   1004c0 <cprintf>
  kvmalloc();      // initialize the kernel page table
  102770:	e8 ab 37 00 00       	call   105f20 <kvmalloc>
  pinit();         // process table
  102775:	e8 f6 11 00 00       	call   103970 <pinit>
  tvinit();        // trap vectors
  10277a:	e8 81 28 00 00       	call   105000 <tvinit>
  10277f:	90                   	nop
  binit();         // buffer cache
  102780:	e8 fb d9 ff ff       	call   100180 <binit>
  fileinit();      // file table
  102785:	e8 b6 e8 ff ff       	call   101040 <fileinit>
  iinit();         // inode cache
  10278a:	e8 c1 f6 ff ff       	call   101e50 <iinit>
  10278f:	90                   	nop
  ideinit();       // disk
  102790:	e8 1b f9 ff ff       	call   1020b0 <ideinit>
  if(!ismp)
  102795:	a1 84 aa 10 00       	mov    0x10aa84,%eax
  10279a:	85 c0                	test   %eax,%eax
  10279c:	0f 84 ab 00 00 00    	je     10284d <mainc+0xfd>
    timerinit();   // uniprocessor timer
  userinit();      // first user process
  1027a2:	e8 09 10 00 00       	call   1037b0 <userinit>
  char *stack;

  // Write bootstrap code to unused memory at 0x7000.  The linker has
  // placed the start of bootother.S there.
  code = (uchar *) 0x7000;
  memmove(code, _binary_bootother_start, (uint)_binary_bootother_size);
  1027a7:	c7 44 24 08 6a 00 00 	movl   $0x6a,0x8(%esp)
  1027ae:	00 
  1027af:	c7 44 24 04 34 77 10 	movl   $0x107734,0x4(%esp)
  1027b6:	00 
  1027b7:	c7 04 24 00 70 00 00 	movl   $0x7000,(%esp)
  1027be:	e8 7d 14 00 00       	call   103c40 <memmove>

  for(c = cpus; c < cpus+ncpu; c++){
  1027c3:	69 05 80 b0 10 00 bc 	imul   $0xbc,0x10b080,%eax
  1027ca:	00 00 00 
  1027cd:	05 a0 aa 10 00       	add    $0x10aaa0,%eax
  1027d2:	3d a0 aa 10 00       	cmp    $0x10aaa0,%eax
  1027d7:	76 6a                	jbe    102843 <mainc+0xf3>
  1027d9:	bb a0 aa 10 00       	mov    $0x10aaa0,%ebx
  1027de:	66 90                	xchg   %ax,%ax
    if(c == cpus+cpunum())  // We've started already.
  1027e0:	e8 4b fd ff ff       	call   102530 <cpunum>
  1027e5:	69 c0 bc 00 00 00    	imul   $0xbc,%eax,%eax
  1027eb:	05 a0 aa 10 00       	add    $0x10aaa0,%eax
  1027f0:	39 c3                	cmp    %eax,%ebx
  1027f2:	74 36                	je     10282a <mainc+0xda>
      continue;

    // Fill in %esp, %eip and start code on cpu.
    stack = kalloc();
  1027f4:	e8 57 fa ff ff       	call   102250 <kalloc>
    *(void**)(code-4) = stack + KSTACKSIZE;
    *(void**)(code-8) = mpmain;
  1027f9:	c7 05 f8 6f 00 00 e0 	movl   $0x1026e0,0x6ff8
  102800:	26 10 00 
    if(c == cpus+cpunum())  // We've started already.
      continue;

    // Fill in %esp, %eip and start code on cpu.
    stack = kalloc();
    *(void**)(code-4) = stack + KSTACKSIZE;
  102803:	05 00 10 00 00       	add    $0x1000,%eax
  102808:	a3 fc 6f 00 00       	mov    %eax,0x6ffc
    *(void**)(code-8) = mpmain;
    lapicstartap(c->id, (uint)code);
  10280d:	c7 44 24 04 00 70 00 	movl   $0x7000,0x4(%esp)
  102814:	00 
  102815:	0f b6 03             	movzbl (%ebx),%eax
  102818:	89 04 24             	mov    %eax,(%esp)
  10281b:	e8 60 fc ff ff       	call   102480 <lapicstartap>

    // Wait for cpu to finish mpmain()
    while(c->booted == 0)
  102820:	8b 83 a8 00 00 00    	mov    0xa8(%ebx),%eax
  102826:	85 c0                	test   %eax,%eax
  102828:	74 f6                	je     102820 <mainc+0xd0>
  // Write bootstrap code to unused memory at 0x7000.  The linker has
  // placed the start of bootother.S there.
  code = (uchar *) 0x7000;
  memmove(code, _binary_bootother_start, (uint)_binary_bootother_size);

  for(c = cpus; c < cpus+ncpu; c++){
  10282a:	69 05 80 b0 10 00 bc 	imul   $0xbc,0x10b080,%eax
  102831:	00 00 00 
  102834:	81 c3 bc 00 00 00    	add    $0xbc,%ebx
  10283a:	05 a0 aa 10 00       	add    $0x10aaa0,%eax
  10283f:	39 c3                	cmp    %eax,%ebx
  102841:	72 9d                	jb     1027e0 <mainc+0x90>
  userinit();      // first user process
  bootothers();    // start other processors

  // Finish setting up this processor in mpmain.
  mpmain();
}
  102843:	83 c4 14             	add    $0x14,%esp
  102846:	5b                   	pop    %ebx
  102847:	5d                   	pop    %ebp
    timerinit();   // uniprocessor timer
  userinit();      // first user process
  bootothers();    // start other processors

  // Finish setting up this processor in mpmain.
  mpmain();
  102848:	e9 93 fe ff ff       	jmp    1026e0 <mpmain>
  binit();         // buffer cache
  fileinit();      // file table
  iinit();         // inode cache
  ideinit();       // disk
  if(!ismp)
    timerinit();   // uniprocessor timer
  10284d:	e8 ae 24 00 00       	call   104d00 <timerinit>
  102852:	e9 4b ff ff ff       	jmp    1027a2 <mainc+0x52>
  102857:	89 f6                	mov    %esi,%esi
  102859:	8d bc 27 00 00 00 00 	lea    0x0(%edi,%eiz,1),%edi

00102860 <jkstack>:
  jkstack();       // call mainc() on a properly-allocated stack 
}

void
jkstack(void)
{
  102860:	55                   	push   %ebp
  102861:	89 e5                	mov    %esp,%ebp
  102863:	83 ec 18             	sub    $0x18,%esp
  char *kstack = kalloc();
  102866:	e8 e5 f9 ff ff       	call   102250 <kalloc>
  if(!kstack)
  10286b:	85 c0                	test   %eax,%eax
  10286d:	74 19                	je     102888 <jkstack+0x28>
    panic("jkstack\n");
  char *top = kstack + PGSIZE;
  asm volatile("movl %0,%%esp" : : "r" (top));
  10286f:	05 00 10 00 00       	add    $0x1000,%eax
  102874:	89 c4                	mov    %eax,%esp
  asm volatile("call mainc");
  102876:	e8 d5 fe ff ff       	call   102750 <mainc>
  panic("jkstack");
  10287b:	c7 04 24 21 69 10 00 	movl   $0x106921,(%esp)
  102882:	e8 29 e0 ff ff       	call   1008b0 <panic>
  102887:	90                   	nop
void
jkstack(void)
{
  char *kstack = kalloc();
  if(!kstack)
    panic("jkstack\n");
  102888:	c7 04 24 18 69 10 00 	movl   $0x106918,(%esp)
  10288f:	e8 1c e0 ff ff       	call   1008b0 <panic>
  102894:	8d b6 00 00 00 00    	lea    0x0(%esi),%esi
  10289a:	8d bf 00 00 00 00    	lea    0x0(%edi),%edi

001028a0 <main>:
void mainc(void);

// Bootstrap processor starts running C code here.
int
main(void)
{
  1028a0:	55                   	push   %ebp
  1028a1:	89 e5                	mov    %esp,%ebp
  1028a3:	83 e4 f0             	and    $0xfffffff0,%esp
  1028a6:	83 ec 10             	sub    $0x10,%esp
  mpinit();        // collect info about this machine
  1028a9:	e8 d2 00 00 00       	call   102980 <mpinit>
  lapicinit(mpbcpu());
  1028ae:	e8 2d 00 00 00       	call   1028e0 <mpbcpu>
  1028b3:	89 04 24             	mov    %eax,(%esp)
  1028b6:	e8 c5 fc ff ff       	call   102580 <lapicinit>
  ksegment();      // set up segments
  1028bb:	e8 a0 3a 00 00       	call   106360 <ksegment>
  picinit();       // interrupt controller
  1028c0:	e8 eb 02 00 00       	call   102bb0 <picinit>
  ioapicinit();    // another interrupt controller
  1028c5:	e8 c6 f8 ff ff       	call   102190 <ioapicinit>
  consoleinit();   // I/O devices & their interrupts
  1028ca:	e8 21 d9 ff ff       	call   1001f0 <consoleinit>
  1028cf:	90                   	nop
  uartinit();      // serial port
  1028d0:	e8 5b 28 00 00       	call   105130 <uartinit>
  kinit();         // initialize memory allocator
  1028d5:	e8 26 fa ff ff       	call   102300 <kinit>
  jkstack();       // call mainc() on a properly-allocated stack 
  1028da:	e8 81 ff ff ff       	call   102860 <jkstack>
  1028df:	90                   	nop

001028e0 <mpbcpu>:
int ncpu;
uchar ioapicid;

int
mpbcpu(void)
{
  1028e0:	a1 44 78 10 00       	mov    0x107844,%eax
  1028e5:	55                   	push   %ebp
  1028e6:	89 e5                	mov    %esp,%ebp
  return bcpu-cpus;
}
  1028e8:	5d                   	pop    %ebp
int ncpu;
uchar ioapicid;

int
mpbcpu(void)
{
  1028e9:	2d a0 aa 10 00       	sub    $0x10aaa0,%eax
  1028ee:	c1 f8 02             	sar    $0x2,%eax
  1028f1:	69 c0 cf 46 7d 67    	imul   $0x677d46cf,%eax,%eax
  return bcpu-cpus;
}
  1028f7:	c3                   	ret    
  1028f8:	90                   	nop
  1028f9:	8d b4 26 00 00 00 00 	lea    0x0(%esi,%eiz,1),%esi

00102900 <mpsearch1>:
}

// Look for an MP structure in the len bytes at addr.
static struct mp*
mpsearch1(uchar *addr, int len)
{
  102900:	55                   	push   %ebp
  102901:	89 e5                	mov    %esp,%ebp
  102903:	56                   	push   %esi
  102904:	89 d6                	mov    %edx,%esi
  102906:	53                   	push   %ebx
  102907:	89 c3                	mov    %eax,%ebx
  102909:	83 ec 10             	sub    $0x10,%esp
  uchar *e, *p;

  cprintf("mpsearch1 0x%x %d\n", addr, len);
  e = addr+len;
  10290c:	8d 34 33             	lea    (%ebx,%esi,1),%esi
static struct mp*
mpsearch1(uchar *addr, int len)
{
  uchar *e, *p;

  cprintf("mpsearch1 0x%x %d\n", addr, len);
  10290f:	89 54 24 08          	mov    %edx,0x8(%esp)
  102913:	89 44 24 04          	mov    %eax,0x4(%esp)
  102917:	c7 04 24 29 69 10 00 	movl   $0x106929,(%esp)
  10291e:	e8 9d db ff ff       	call   1004c0 <cprintf>
  e = addr+len;
  for(p = addr; p < e; p += sizeof(struct mp))
  102923:	39 f3                	cmp    %esi,%ebx
  102925:	73 3a                	jae    102961 <mpsearch1+0x61>
  102927:	90                   	nop
    if(memcmp(p, "_MP_", 4) == 0 && sum(p, sizeof(struct mp)) == 0)
  102928:	c7 44 24 08 04 00 00 	movl   $0x4,0x8(%esp)
  10292f:	00 
  102930:	c7 44 24 04 3c 69 10 	movl   $0x10693c,0x4(%esp)
  102937:	00 
  102938:	89 1c 24             	mov    %ebx,(%esp)
  10293b:	e8 a0 12 00 00       	call   103be0 <memcmp>
  102940:	85 c0                	test   %eax,%eax
  102942:	75 16                	jne    10295a <mpsearch1+0x5a>
  102944:	31 d2                	xor    %edx,%edx
  102946:	66 90                	xchg   %ax,%ax
{
  int i, sum;
  
  sum = 0;
  for(i=0; i<len; i++)
    sum += addr[i];
  102948:	0f b6 0c 03          	movzbl (%ebx,%eax,1),%ecx
sum(uchar *addr, int len)
{
  int i, sum;
  
  sum = 0;
  for(i=0; i<len; i++)
  10294c:	83 c0 01             	add    $0x1,%eax
    sum += addr[i];
  10294f:	01 ca                	add    %ecx,%edx
sum(uchar *addr, int len)
{
  int i, sum;
  
  sum = 0;
  for(i=0; i<len; i++)
  102951:	83 f8 10             	cmp    $0x10,%eax
  102954:	75 f2                	jne    102948 <mpsearch1+0x48>
  uchar *e, *p;

  cprintf("mpsearch1 0x%x %d\n", addr, len);
  e = addr+len;
  for(p = addr; p < e; p += sizeof(struct mp))
    if(memcmp(p, "_MP_", 4) == 0 && sum(p, sizeof(struct mp)) == 0)
  102956:	84 d2                	test   %dl,%dl
  102958:	74 10                	je     10296a <mpsearch1+0x6a>
{
  uchar *e, *p;

  cprintf("mpsearch1 0x%x %d\n", addr, len);
  e = addr+len;
  for(p = addr; p < e; p += sizeof(struct mp))
  10295a:	83 c3 10             	add    $0x10,%ebx
  10295d:	39 de                	cmp    %ebx,%esi
  10295f:	77 c7                	ja     102928 <mpsearch1+0x28>
    if(memcmp(p, "_MP_", 4) == 0 && sum(p, sizeof(struct mp)) == 0)
      return (struct mp*)p;
  return 0;
}
  102961:	83 c4 10             	add    $0x10,%esp
{
  uchar *e, *p;

  cprintf("mpsearch1 0x%x %d\n", addr, len);
  e = addr+len;
  for(p = addr; p < e; p += sizeof(struct mp))
  102964:	31 c0                	xor    %eax,%eax
    if(memcmp(p, "_MP_", 4) == 0 && sum(p, sizeof(struct mp)) == 0)
      return (struct mp*)p;
  return 0;
}
  102966:	5b                   	pop    %ebx
  102967:	5e                   	pop    %esi
  102968:	5d                   	pop    %ebp
  102969:	c3                   	ret    
  10296a:	83 c4 10             	add    $0x10,%esp

  cprintf("mpsearch1 0x%x %d\n", addr, len);
  e = addr+len;
  for(p = addr; p < e; p += sizeof(struct mp))
    if(memcmp(p, "_MP_", 4) == 0 && sum(p, sizeof(struct mp)) == 0)
      return (struct mp*)p;
  10296d:	89 d8                	mov    %ebx,%eax
  return 0;
}
  10296f:	5b                   	pop    %ebx
  102970:	5e                   	pop    %esi
  102971:	5d                   	pop    %ebp
  102972:	c3                   	ret    
  102973:	8d b6 00 00 00 00    	lea    0x0(%esi),%esi
  102979:	8d bc 27 00 00 00 00 	lea    0x0(%edi,%eiz,1),%edi

00102980 <mpinit>:
  return conf;
}

void
mpinit(void)
{
  102980:	55                   	push   %ebp
  102981:	89 e5                	mov    %esp,%ebp
  102983:	57                   	push   %edi
  102984:	56                   	push   %esi
  102985:	53                   	push   %ebx
  102986:	83 ec 2c             	sub    $0x2c,%esp
  uchar *bda;
  uint p;
  struct mp *mp;

  bda = (uchar*)0x400;
  if((p = ((bda[0x0F]<<8)|bda[0x0E]) << 4)){
  102989:	0f b6 05 0f 04 00 00 	movzbl 0x40f,%eax
  102990:	0f b6 15 0e 04 00 00 	movzbl 0x40e,%edx
  struct mp *mp;
  struct mpconf *conf;
  struct mpproc *proc;
  struct mpioapic *ioapic;

  bcpu = &cpus[0];
  102997:	c7 05 44 78 10 00 a0 	movl   $0x10aaa0,0x107844
  10299e:	aa 10 00 
  uchar *bda;
  uint p;
  struct mp *mp;

  bda = (uchar*)0x400;
  if((p = ((bda[0x0F]<<8)|bda[0x0E]) << 4)){
  1029a1:	c1 e0 08             	shl    $0x8,%eax
  1029a4:	09 d0                	or     %edx,%eax
  1029a6:	c1 e0 04             	shl    $0x4,%eax
  1029a9:	85 c0                	test   %eax,%eax
  1029ab:	75 1b                	jne    1029c8 <mpinit+0x48>
    if((mp = mpsearch1((uchar*)p, 1024)))
      return mp;
  } else {
    p = ((bda[0x14]<<8)|bda[0x13])*1024;
    if((mp = mpsearch1((uchar*)p-1024, 1024)))
  1029ad:	0f b6 05 14 04 00 00 	movzbl 0x414,%eax
  1029b4:	0f b6 15 13 04 00 00 	movzbl 0x413,%edx
  1029bb:	c1 e0 08             	shl    $0x8,%eax
  1029be:	09 d0                	or     %edx,%eax
  1029c0:	c1 e0 0a             	shl    $0xa,%eax
  1029c3:	2d 00 04 00 00       	sub    $0x400,%eax
  1029c8:	ba 00 04 00 00       	mov    $0x400,%edx
  1029cd:	e8 2e ff ff ff       	call   102900 <mpsearch1>
  1029d2:	85 c0                	test   %eax,%eax
  1029d4:	89 c3                	mov    %eax,%ebx
  1029d6:	0f 84 54 01 00 00    	je     102b30 <mpinit+0x1b0>
mpconfig(struct mp **pmp)
{
  struct mpconf *conf;
  struct mp *mp;

  if((mp = mpsearch()) == 0 || mp->physaddr == 0)
  1029dc:	8b 73 04             	mov    0x4(%ebx),%esi
  1029df:	85 f6                	test   %esi,%esi
  1029e1:	74 1c                	je     1029ff <mpinit+0x7f>
    return 0;
  conf = (struct mpconf*)mp->physaddr;
  if(memcmp(conf, "PCMP", 4) != 0)
  1029e3:	c7 44 24 08 04 00 00 	movl   $0x4,0x8(%esp)
  1029ea:	00 
  1029eb:	c7 44 24 04 41 69 10 	movl   $0x106941,0x4(%esp)
  1029f2:	00 
  1029f3:	89 34 24             	mov    %esi,(%esp)
  1029f6:	e8 e5 11 00 00       	call   103be0 <memcmp>
  1029fb:	85 c0                	test   %eax,%eax
  1029fd:	74 09                	je     102a08 <mpinit+0x88>
    // Bochs doesn't support IMCR, so this doesn't run on Bochs.
    // But it would on real hardware.
    outb(0x22, 0x70);   // Select IMCR
    outb(0x23, inb(0x23) | 1);  // Mask external interrupts.
  }
}
  1029ff:	83 c4 2c             	add    $0x2c,%esp
  102a02:	5b                   	pop    %ebx
  102a03:	5e                   	pop    %esi
  102a04:	5f                   	pop    %edi
  102a05:	5d                   	pop    %ebp
